ccopy_reg
_reconstructor
p0
(cpandas.core.frame
DataFrame
p1
c__builtin__
object
p2
Ntp3
Rp4
(dp5
S'_metadata'
p6
(lp7
sS'_typ'
p8
S'dataframe'
p9
sS'_data'
p10
g0
(cpandas.core.internals
BlockManager
p11
g2
Ntp12
Rp13
((lp14
cpandas.core.indexes.base
_new_Index
p15
(cpandas.core.indexes.base
Index
p16
(dp17
S'data'
p18
cnumpy.core.multiarray
_reconstruct
p19
(cnumpy
ndarray
p20
(I0
tp21
S'b'
p22
tp23
Rp24
(I1
(I38
tp25
cnumpy
dtype
p26
(S'O8'
p27
I0
I1
tp28
Rp29
(I3
S'|'
p30
NNNI-1
I-1
I63
tp31
bI00
(lp32
S'year'
p33
aS'type'
p34
aS'procOriginal'
p35
aS'proc'
p36
aS'proc_s0'
p37
aS'cat'
p38
aS'inputWSFile'
p39
aS'nominalDataName'
p40
aS'modelWSFile'
p41
aS'model'
p42
aS'rate'
p43
aS'nominal_yield'
p44
aS'sumw2'
p45
aS'nominal_yield_COWCorr'
p46
aS'weight_electron_veto_sf_Diphoton_Photon_up_yield'
p47
aS'weight_electron_veto_sf_Diphoton_Photon_down_yield'
p48
aS'weight_electron_id_sf_SelectedElectron_up_yield'
p49
aS'weight_electron_id_sf_SelectedElectron_down_yield'
p50
aS'weight_muon_id_sfSTAT_SelectedMuon_up_yield'
p51
aS'weight_muon_id_sfSTAT_SelectedMuon_down_yield'
p52
aS'weight_muon_id_sfSYS_SelectedMuon_up_yield'
p53
aS'weight_muon_id_sfSYS_SelectedMuon_down_yield'
p54
aS'weight_trigger_sf_up_yield'
p55
aS'weight_trigger_sf_down_yield'
p56
aS'JER_up_yield'
p57
aS'JER_down_yield'
p58
aS'JES_up_yield'
p59
aS'JES_down_yield'
p60
aS'MET_JER_up_yield'
p61
aS'MET_JER_down_yield'
p62
aS'MET_JES_up_yield'
p63
aS'MET_JES_down_yield'
p64
aS'MET_Unclustered_up_yield'
p65
aS'MET_Unclustered_down_yield'
p66
aS'Muon_pt_up_yield'
p67
aS'Muon_pt_down_yield'
p68
aS'Tau_pt_up_yield'
p69
aS'Tau_pt_down_yield'
p70
atp71
bsS'name'
p72
Nstp73
Rp74
ag15
(cpandas.core.indexes.numeric
Int64Index
p75
(dp76
g18
g19
(g20
(I0
tp77
g22
tp78
Rp79
(I1
(I23
tp80
g26
(S'i8'
p81
I0
I1
tp82
Rp83
(I3
S'<'
p84
NNNI-1
I-1
I0
tp85
bI00
S'\x00\x00\x00\x00\x00\x00\x00\x00\x01\x00\x00\x00\x00\x00\x00\x00\x02\x00\x00\x00\x00\x00\x00\x00\x03\x00\x00\x00\x00\x00\x00\x00\x04\x00\x00\x00\x00\x00\x00\x00\x05\x00\x00\x00\x00\x00\x00\x00\x06\x00\x00\x00\x00\x00\x00\x00\x07\x00\x00\x00\x00\x00\x00\x00\x08\x00\x00\x00\x00\x00\x00\x00\t\x00\x00\x00\x00\x00\x00\x00\n\x00\x00\x00\x00\x00\x00\x00\x0b\x00\x00\x00\x00\x00\x00\x00\x0c\x00\x00\x00\x00\x00\x00\x00\r\x00\x00\x00\x00\x00\x00\x00\x0e\x00\x00\x00\x00\x00\x00\x00\x0f\x00\x00\x00\x00\x00\x00\x00\x10\x00\x00\x00\x00\x00\x00\x00\x11\x00\x00\x00\x00\x00\x00\x00\x12\x00\x00\x00\x00\x00\x00\x00\x13\x00\x00\x00\x00\x00\x00\x00\x14\x00\x00\x00\x00\x00\x00\x00\x15\x00\x00\x00\x00\x00\x00\x00\x16\x00\x00\x00\x00\x00\x00\x00'
p86
tp87
bsg72
Nstp88
Rp89
a(lp90
g19
(g20
(I0
tp91
g22
tp92
Rp93
(I1
(I38
I23
tp94
g29
I00
(lp95
S'2016'
p96
ag96
ag96
ag96
ag96
ag96
ag96
aS'2017'
p97
ag97
ag97
ag97
ag97
ag97
ag97
aS'2018'
p98
ag98
ag98
ag98
ag98
ag98
ag98
aS'merged'
p99
ag99
aS'sig'
p100
ag100
ag100
ag100
ag100
ag100
ag100
ag100
ag100
ag100
ag100
ag100
ag100
ag100
ag100
ag100
ag100
ag100
ag100
ag100
ag100
aS'bkg'
p101
ag18
aS'HHggTauTau'
p102
aS'HHggWWdileptonic'
p103
aS'HHggWWsemileptonic'
p104
aS'VBFH'
p105
aS'VH'
p106
aS'ggH'
p107
aS'ttH'
p108
ag102
ag103
ag104
ag105
ag106
ag107
ag108
ag102
ag103
ag104
ag105
ag106
ag107
ag108
aS'bkg_mass'
p109
aS'data_obs'
p110
aS'HHggTauTau_2016_hgg'
p111
aS'HHggWWdileptonic_2016_hgg'
p112
aS'HHggWWsemileptonic_2016_hgg'
p113
aS'VBFH_2016_hgg'
p114
aS'VH_2016_hgg'
p115
aS'ggH_2016_hgg'
p116
aS'ttH_2016_hgg'
p117
aS'HHggTauTau_2017_hgg'
p118
aS'HHggWWdileptonic_2017_hgg'
p119
aS'HHggWWsemileptonic_2017_hgg'
p120
aS'VBFH_2017_hgg'
p121
aS'VH_2017_hgg'
p122
aS'ggH_2017_hgg'
p123
aS'ttH_2017_hgg'
p124
aS'HHggTauTau_2018_hgg'
p125
aS'HHggWWdileptonic_2018_hgg'
p126
aS'HHggWWsemileptonic_2018_hgg'
p127
aS'VBFH_2018_hgg'
p128
aS'VH_2018_hgg'
p129
aS'ggH_2018_hgg'
p130
aS'ttH_2018_hgg'
p131
ag109
ag110
ag102
ag103
ag104
ag105
ag106
ag107
ag108
ag102
ag103
ag104
ag105
ag106
ag107
ag108
ag102
ag103
ag104
ag105
ag106
ag107
ag108
aS'-'
p132
ag132
aS'SR1'
p133
ag133
ag133
ag133
ag133
ag133
ag133
ag133
ag133
ag133
ag133
ag133
ag133
ag133
ag133
ag133
ag133
ag133
ag133
ag133
ag133
ag133
ag133
aS'/home/users/fsetti/ic_flashgg/CMSSW_10_2_13/src/flashggFinalFit/files_systs/10Apr2022//ws_signal_2016/output_HHggTauTau_M125_13TeV_pythia8_HHggTauTau.root'
p134
aS'/home/users/fsetti/ic_flashgg/CMSSW_10_2_13/src/flashggFinalFit/files_systs/10Apr2022//ws_signal_2016/output_HHggWWdileptonic_M125_13TeV_pythia8_HHggWWdileptonic.root'
p135
aS'/home/users/fsetti/ic_flashgg/CMSSW_10_2_13/src/flashggFinalFit/files_systs/10Apr2022//ws_signal_2016/output_HHggWWsemileptonic_M125_13TeV_pythia8_HHggWWsemileptonic.root'
p136
aS'/home/users/fsetti/ic_flashgg/CMSSW_10_2_13/src/flashggFinalFit/files_systs/10Apr2022//ws_signal_2016/output_VBFH_M125_13TeV_pythia8_VBFH.root'
p137
aS'/home/users/fsetti/ic_flashgg/CMSSW_10_2_13/src/flashggFinalFit/files_systs/10Apr2022//ws_signal_2016/output_VH_M125_13TeV_pythia8_VH.root'
p138
aS'/home/users/fsetti/ic_flashgg/CMSSW_10_2_13/src/flashggFinalFit/files_systs/10Apr2022//ws_signal_2016/output_ggH_M125_13TeV_pythia8_ggH.root'
p139
aS'/home/users/fsetti/ic_flashgg/CMSSW_10_2_13/src/flashggFinalFit/files_systs/10Apr2022//ws_signal_2016/output_ttH_M125_13TeV_pythia8_ttH.root'
p140
aS'/home/users/fsetti/ic_flashgg/CMSSW_10_2_13/src/flashggFinalFit/files_systs/10Apr2022//ws_signal_2017/output_HHggTauTau_M125_13TeV_pythia8_HHggTauTau.root'
p141
aS'/home/users/fsetti/ic_flashgg/CMSSW_10_2_13/src/flashggFinalFit/files_systs/10Apr2022//ws_signal_2017/output_HHggWWdileptonic_M125_13TeV_pythia8_HHggWWdileptonic.root'
p142
aS'/home/users/fsetti/ic_flashgg/CMSSW_10_2_13/src/flashggFinalFit/files_systs/10Apr2022//ws_signal_2017/output_HHggWWsemileptonic_M125_13TeV_pythia8_HHggWWsemileptonic.root'
p143
aS'/home/users/fsetti/ic_flashgg/CMSSW_10_2_13/src/flashggFinalFit/files_systs/10Apr2022//ws_signal_2017/output_VBFH_M125_13TeV_pythia8_VBFH.root'
p144
aS'/home/users/fsetti/ic_flashgg/CMSSW_10_2_13/src/flashggFinalFit/files_systs/10Apr2022//ws_signal_2017/output_VH_M125_13TeV_pythia8_VH.root'
p145
aS'/home/users/fsetti/ic_flashgg/CMSSW_10_2_13/src/flashggFinalFit/files_systs/10Apr2022//ws_signal_2017/output_ggH_M125_13TeV_pythia8_ggH.root'
p146
aS'/home/users/fsetti/ic_flashgg/CMSSW_10_2_13/src/flashggFinalFit/files_systs/10Apr2022//ws_signal_2017/output_ttH_M125_13TeV_pythia8_ttH.root'
p147
aS'/home/users/fsetti/ic_flashgg/CMSSW_10_2_13/src/flashggFinalFit/files_systs/10Apr2022//ws_signal_2018/output_HHggTauTau_M125_13TeV_pythia8_HHggTauTau.root'
p148
aS'/home/users/fsetti/ic_flashgg/CMSSW_10_2_13/src/flashggFinalFit/files_systs/10Apr2022//ws_signal_2018/output_HHggWWdileptonic_M125_13TeV_pythia8_HHggWWdileptonic.root'
p149
aS'/home/users/fsetti/ic_flashgg/CMSSW_10_2_13/src/flashggFinalFit/files_systs/10Apr2022//ws_signal_2018/output_HHggWWsemileptonic_M125_13TeV_pythia8_HHggWWsemileptonic.root'
p150
aS'/home/users/fsetti/ic_flashgg/CMSSW_10_2_13/src/flashggFinalFit/files_systs/10Apr2022//ws_signal_2018/output_VBFH_M125_13TeV_pythia8_VBFH.root'
p151
aS'/home/users/fsetti/ic_flashgg/CMSSW_10_2_13/src/flashggFinalFit/files_systs/10Apr2022//ws_signal_2018/output_VH_M125_13TeV_pythia8_VH.root'
p152
aS'/home/users/fsetti/ic_flashgg/CMSSW_10_2_13/src/flashggFinalFit/files_systs/10Apr2022//ws_signal_2018/output_ggH_M125_13TeV_pythia8_ggH.root'
p153
aS'/home/users/fsetti/ic_flashgg/CMSSW_10_2_13/src/flashggFinalFit/files_systs/10Apr2022//ws_signal_2018/output_ttH_M125_13TeV_pythia8_ttH.root'
p154
ag132
ag132
aS'HHggTauTau_125_13TeV_SR1'
p155
aS'HHggWWdileptonic_125_13TeV_SR1'
p156
aS'HHggWWsemileptonic_125_13TeV_SR1'
p157
aS'VBFH_125_13TeV_SR1'
p158
aS'VH_125_13TeV_SR1'
p159
aS'ggH_125_13TeV_SR1'
p160
aS'ttH_125_13TeV_SR1'
p161
aS'HHggTauTau_125_13TeV_SR1'
p162
aS'HHggWWdileptonic_125_13TeV_SR1'
p163
aS'HHggWWsemileptonic_125_13TeV_SR1'
p164
aS'VBFH_125_13TeV_SR1'
p165
aS'VH_125_13TeV_SR1'
p166
aS'ggH_125_13TeV_SR1'
p167
aS'ttH_125_13TeV_SR1'
p168
aS'HHggTauTau_125_13TeV_SR1'
p169
aS'HHggWWdileptonic_125_13TeV_SR1'
p170
aS'HHggWWsemileptonic_125_13TeV_SR1'
p171
aS'VBFH_125_13TeV_SR1'
p172
aS'VH_125_13TeV_SR1'
p173
aS'ggH_125_13TeV_SR1'
p174
aS'ttH_125_13TeV_SR1'
p175
ag132
ag132
aS'./Models/signal/CMS-HGG_sigfit_packaged_SR1.root'
p176
aS'./Models/signal/CMS-HGG_sigfit_packaged_SR1.root'
p177
aS'./Models/signal/CMS-HGG_sigfit_packaged_SR1.root'
p178
aS'./Models/signal/CMS-HGG_sigfit_packaged_SR1.root'
p179
aS'./Models/signal/CMS-HGG_sigfit_packaged_SR1.root'
p180
aS'./Models/signal/CMS-HGG_sigfit_packaged_SR1.root'
p181
aS'./Models/signal/CMS-HGG_sigfit_packaged_SR1.root'
p182
aS'./Models/signal/CMS-HGG_sigfit_packaged_SR1.root'
p183
aS'./Models/signal/CMS-HGG_sigfit_packaged_SR1.root'
p184
aS'./Models/signal/CMS-HGG_sigfit_packaged_SR1.root'
p185
aS'./Models/signal/CMS-HGG_sigfit_packaged_SR1.root'
p186
aS'./Models/signal/CMS-HGG_sigfit_packaged_SR1.root'
p187
aS'./Models/signal/CMS-HGG_sigfit_packaged_SR1.root'
p188
aS'./Models/signal/CMS-HGG_sigfit_packaged_SR1.root'
p189
aS'./Models/signal/CMS-HGG_sigfit_packaged_SR1.root'
p190
aS'./Models/signal/CMS-HGG_sigfit_packaged_SR1.root'
p191
aS'./Models/signal/CMS-HGG_sigfit_packaged_SR1.root'
p192
aS'./Models/signal/CMS-HGG_sigfit_packaged_SR1.root'
p193
aS'./Models/signal/CMS-HGG_sigfit_packaged_SR1.root'
p194
aS'./Models/signal/CMS-HGG_sigfit_packaged_SR1.root'
p195
aS'./Models/signal/CMS-HGG_sigfit_packaged_SR1.root'
p196
aS'./Models/background/CMS-HGG_multipdf_SR1.root'
p197
ag197
aS'wsig_13TeV:hggpdfsmrel_HHggTauTau_2016_SR1_13TeV'
p198
aS'wsig_13TeV:hggpdfsmrel_HHggWWdileptonic_2016_SR1_13TeV'
p199
aS'wsig_13TeV:hggpdfsmrel_HHggWWsemileptonic_2016_SR1_13TeV'
p200
aS'wsig_13TeV:hggpdfsmrel_VBFH_2016_SR1_13TeV'
p201
aS'wsig_13TeV:hggpdfsmrel_VH_2016_SR1_13TeV'
p202
aS'wsig_13TeV:hggpdfsmrel_ggH_2016_SR1_13TeV'
p203
aS'wsig_13TeV:hggpdfsmrel_ttH_2016_SR1_13TeV'
p204
aS'wsig_13TeV:hggpdfsmrel_HHggTauTau_2017_SR1_13TeV'
p205
aS'wsig_13TeV:hggpdfsmrel_HHggWWdileptonic_2017_SR1_13TeV'
p206
aS'wsig_13TeV:hggpdfsmrel_HHggWWsemileptonic_2017_SR1_13TeV'
p207
aS'wsig_13TeV:hggpdfsmrel_VBFH_2017_SR1_13TeV'
p208
aS'wsig_13TeV:hggpdfsmrel_VH_2017_SR1_13TeV'
p209
aS'wsig_13TeV:hggpdfsmrel_ggH_2017_SR1_13TeV'
p210
aS'wsig_13TeV:hggpdfsmrel_ttH_2017_SR1_13TeV'
p211
aS'wsig_13TeV:hggpdfsmrel_HHggTauTau_2018_SR1_13TeV'
p212
aS'wsig_13TeV:hggpdfsmrel_HHggWWdileptonic_2018_SR1_13TeV'
p213
aS'wsig_13TeV:hggpdfsmrel_HHggWWsemileptonic_2018_SR1_13TeV'
p214
aS'wsig_13TeV:hggpdfsmrel_VBFH_2018_SR1_13TeV'
p215
aS'wsig_13TeV:hggpdfsmrel_VH_2018_SR1_13TeV'
p216
aS'wsig_13TeV:hggpdfsmrel_ggH_2018_SR1_13TeV'
p217
aS'wsig_13TeV:hggpdfsmrel_ttH_2018_SR1_13TeV'
p218
aS'multipdf:CMS_hgg_SR1_13TeV_bkgshape'
p219
aS'multipdf:roohist_data_mass_SR1'
p220
aI1000
aI1000
aI1000
aI1000
aI1000
aI1000
aI1000
aI1000
aI1000
aI1000
aI1000
aI1000
aI1000
aI1000
aI1000
aI1000
aI1000
aI1000
aI1000
aI1000
aI1000
aF1.0
aI-1
aF0.04499709361536163
aF0.015219960021951546
aF0.004644945695633831
aF0.00867361905815019
aF0.25692169275359356
aF0.020775708380597984
aF0.05807235691003624
aF0.050456846295153415
aF0.017793144700929853
aF0.008891133914532017
aF0.010083174182210716
aF0.3242715385503911
aF0.000975449050788074
aF0.05457586703646484
aF0.07571979806665596
aF0.021308672781082918
aF0.007948454397365697
aF0.010119524326577188
aF0.4546704593784177
aF0.006552064268465039
aF0.09527308406460822
ag132
ag132
aF4.870265763816588e-08
aF5.8440748769387e-09
aF7.666900843874346e-09
aF5.306334329129123e-06
aF0.00014903782085226553
aF4.5044012958528765e-05
aF2.351814608058142e-05
aF6.022597321930643e-08
aF7.158201722858557e-09
aF1.606051369972789e-08
aF1.2056895187973275e-05
aF0.00019529497598485236
aF2.3177234976108e-05
aF2.6904992657734306e-05
aF1.326748927579007e-07
aF3.534169927326096e-08
aF2.1492986515467904e-08
aF1.794612591445744e-05
aF0.0004094649977407913
aF0.00022208017428089103
aF5.71249260838694e-05
ag132
ag132
aF0.04499709361536163
aF0.015219960021951546
aF0.004644945695633831
aF0.00867361905815019
aF0.25692169275359356
aF0.020775708380597984
aF0.05807235691003624
aF0.050456846295153415
aF0.017793144700929853
aF0.008891133914532017
aF0.010083174182210716
aF0.3242715385503911
aF0.000975449050788074
aF0.05457586703646484
aF0.07571979806665596
aF0.021308672781082918
aF0.007948454397365697
aF0.010119524326577188
aF0.4546704593784177
aF0.006552064268465039
aF0.09527308406460822
ag132
ag132
aF0.044685533147981966
aF0.015113300250602264
aF0.004613681103917979
aF0.00863119470856413
aF0.25509848508166105
aF0.020604482970481175
aF0.05767923960398214
aF0.04952369572381317
aF0.017460498384334666
aF0.008730545079598976
aF0.009903594847609215
aF0.31818201416429875
aF0.0009544843466541305
aF0.05360416591475359
aF0.07442175334745343
aF0.020939168351488804
aF0.007820169968958937
aF0.009960715559731041
aF0.4467389909953215
aF0.006518154499911133
aF0.09367476903275192
ag132
ag132
aF0.044519588115039005
aF0.0150562127197345
aF0.004597912087531774
aF0.008612757537013684
aF0.25413611253938
aF0.02053059350001194
aF0.05747045273844037
aF0.04926288236933952
aF0.017366982704664816
aF0.008686872611725363
aF0.00987047025280716
aF0.3164447007826876
aF0.0009481156074321834
aF0.05332392791349183
aF0.07418407067378766
aF0.02087138378679604
aF0.007797343388453863
aF0.009934980224920101
aF0.44530399030285917
aF0.006520443677209139
aF0.0933946743695084
ag132
ag132
aF0.04488092877561093
aF0.015108818512387991
aF0.00463661611835547
aF0.008662034687213131
aF0.2566519722876953
aF0.020775708380597984
aF0.057811591762521805
aF0.050242428517706404
aF0.0175843177150563
aF0.008859440584768298
aF0.0100931443582742
aF0.32343720866163767
aF0.0009728251161164898
aF0.05415724681395178
aF0.075353784104486
aF0.02102602405036951
aF0.007918314201232918
aF0.010119524326577188
aF0.45364252656315535
aF0.006552064268465039
aF0.09439823068906976
ag132
ag132
aF0.04463808824442394
aF0.014898723535927867
aF0.004618653207440844
aF0.008687469325189906
aF0.25578432507658494
aF0.020775708380597984
aF0.05712347722849142
aF0.04999253847901738
aF0.017369827401828932
aF0.008822879733439138
aF0.010123768420445585
aF0.3226511891193865
aF0.0010999638205639022
aF0.05363790533353483
aF0.07491960287699816
aF0.02073914134164862
aF0.007886548747117297
aF0.010119524326577188
aF0.4524577747672737
aF0.006552064268465039
aF0.09363990646106901
ag132
ag132
aF0.04496660494911698
aF0.015200863553725198
aF0.0046432213169479266
aF0.00867350647671971
aF0.2567832102375131
aF0.020762139750860397
aF0.05799759410046767
aF0.05050230858966995
aF0.017824219490667727
aF0.008898507220954335
aF0.010083052726215536
aF0.3244590399446545
aF0.000975449050788074
aF0.05470172973233025
aF0.07561387000652545
aF0.021251920624838706
aF0.007941027527422071
aF0.010121502885798415
aF0.4544952635318914
aF0.006567031900063002
aF0.09511791722023123
ag132
ag132
aF0.04493357933280327
aF0.01517895786367462
aF0.004641029904053958
aF0.008673758519547551
aF0.25670551818083354
aF0.020754679994076305
aF0.057954350127006934
aF0.050466894211622905
aF0.017799761022908575
aF0.008893577579117752
aF0.01008332463706578
aF0.32435063370154005
aF0.000975449050788074
aF0.05463545109697816
aF0.07557345944678619
aF0.02122945921563827
aF0.007938028074497724
aF0.010119563834929053
aF0.4544173051042203
aF0.0065523631457740485
aF0.09503335218717258
ag132
ag132
aF0.045024447188477305
aF0.015239053052290633
aF0.004647053002391444
aF0.008673547045913664
aF0.25695418325099395
aF0.020777471766605177
aF0.05807989466130586
aF0.05056173149562284
aF0.017864714808146834
aF0.008906515773923257
aF0.010083096493396362
aF0.32463491310246495
aF0.000975449050788074
aF0.054811812582459374
aF0.07572034195329246
aF0.021309034268175788
aF0.007949109709747446
aF0.010124606243037194
aF0.45467271063823184
aF0.006590508532639172
aF0.09532500167246376
ag132
ag132
aF0.04487576542568641
aF0.01514080369132
aF0.004637198579753487
aF0.008673717950353599
aF0.2565345520275804
aF0.020739356196508657
aF0.05787215337852372
aF0.050407500973031975
aF0.017759297632973084
aF0.008885570404844794
aF0.010083280869884956
aF0.3241748652173434
aF0.000975449050788074
aF0.05452547965636685
aF0.07546703736337565
aF0.021172387584967294
aF0.007929947820024989
aF0.010116460525290697
aF0.4542397981807197
aF0.006528886873291025
aF0.09482661310431999
ag132
ag132
aF0.04460372173981673
aF0.015081227377774719
aF0.00460700689249935
aF0.008617312835168773
aF0.25457065543173724
aF0.020659978993073605
aF0.05769171165061443
aF0.04983011119355669
aF0.017569355979675183
aF0.008783816235108523
aF0.009964380435508156
aF0.3203531984085538
aF0.0009631888548859804
aF0.05394381292266867
aF0.07495909157502237
aF0.021090172535264542
aF0.007874058212110681
aF0.010026740829103997
aF0.45034703003621757
aF0.006508880906468678
aF0.09441680480471593
ag132
ag132
aF0.04441587847677312
aF0.015017448267430636
aF0.004587744908354978
aF0.00858365827467188
aF0.25344960353389717
aF0.02057719057505468
aF0.05746561951155537
aF0.04958302573959656
aF0.017481386381922568
aF0.008741038395009155
aF0.00991685904334666
aF0.3186872060255198
aF0.0009589676717823644
aF0.05367779258243531
aF0.07462886755577311
aF0.020996750764100385
aF0.00784029954021231
aF0.009983509157880734
aF0.4483322181021743
aF0.0064840477189157504
aF0.09401202111865813
ag132
ag132
aF0.08926092308291621
aF0.015218480594447937
aF0.004645546353094724
aF0.00867361905815019
aF0.2569216927535934
aF0.02077570838059798
aF0.057804563874383035
aF0.10010530546953048
aF0.01779675238858754
aF0.00889418451153332
aF0.010083174182210717
aF0.32463818568417724
aF0.000975449050788074
aF0.054408521751955444
aF0.15109538185850857
aF0.021308370291139845
aF0.007944475662872767
aF0.010754793110848307
aF0.4541744817930778
aF0.006552064268465039
aF0.0947714167122013
ag132
ag132
aF0.08928340346110072
aF0.015220367302902592
aF0.004646279654750949
aF0.00867361905815019
aF0.25622884067039847
aF0.02077570838059798
aF0.05781553233584421
aF0.10007918911827088
aF0.017793919196662726
aF0.00889037041308521
aF0.010083174182210717
aF0.3238605079936095
aF0.000975449050788074
aF0.05442068342888973
aF0.1511416859042688
aF0.021311849005917097
aF0.007941870516016468
aF0.010119524326577188
aF0.45516787483738447
aF0.006552064268465039
aF0.09552377601499171
ag132
ag132
aF0.08920248925149721
aF0.015206167543628418
aF0.004625651139048612
aF0.00867361905815019
aF0.25628059824327304
aF0.02077570838059798
aF0.05777774447616085
aF0.1000189191201977
aF0.017784521609690164
aF0.008872088413047397
aF0.010083174182210717
aF0.32427153855039065
aF0.000975449050788074
aF0.05440352159045718
aF0.15092117644833586
aF0.021279155258212754
aF0.007899389789469318
aF0.010119524326577188
aF0.454115948913744
aF0.006552064268465039
aF0.09402311039801704
ag132
ag132
aF0.08935991070248668
aF0.015231153777454164
aF0.004662469028065442
aF0.00867361905815019
aF0.25697428596436656
aF0.02077570838059798
aF0.05821626751336068
aF0.10018389340561404
aF0.017804812928291367
aF0.008909322818624329
aF0.010083174182210717
aF0.3238959570051037
aF0.000975449050788074
aF0.054093770831461475
aF0.1513723772719503
aF0.02133644884544569
aF0.007978452822222972
aF0.010754793110848307
aF0.45513338088366095
aF0.006552064268465039
aF0.0946334719478376
ag132
ag132
aF0.08921671210403988
aF0.015217752855458599
aF0.004636507485643718
aF0.00938788577582108
aF0.2568130456229796
aF0.02077570838059798
aF0.05892590939598668
aF0.10012283188900276
aF0.01779418816444906
aF0.008886741333344043
aF0.010891122146835486
aF0.32424910489049086
aF0.000975449050788074
aF0.05428544931116509
aF0.1511453841582299
aF0.021313943959853834
aF0.00795066104753035
aF0.008436555697041125
aF0.4602867587143176
aF0.006552064268465039
aF0.09531494534261396
ag132
ag132
aF0.08929003640745854
aF0.015213312746875696
aF0.004634819548592949
aF0.010098276494173603
aF0.2561359647448679
aF0.02077570838059798
aF0.05978243936001292
aF0.10002076366288863
aF0.01778814414668485
aF0.008857141865961711
aF0.011250991001947422
aF0.3239809869434512
aF0.0006129912070834062
aF0.05495162676556319
aF0.15116648892466308
aF0.021300143033239
aF0.007946180384938193
aF0.010080881333556299
aF0.4567132808336323
aF0.0007429156482104795
aF0.09641417948811097
ag132
ag132
aF0.08902080229886877
aF0.015220418553426244
aF0.004583871196342378
aF0.00877881177058402
aF0.2580231690137116
aF0.02077570838059798
aF0.05837936873313914
aF0.09996168705820485
aF0.017785282889593884
aF0.008792407551499702
aF0.009758272614152066
aF0.3202869490173411
aF0.000975449050788074
aF0.05448250153428094
aF0.1508477850004708
aF0.021310159513718802
aF0.007867269217413604
aF0.010036748316263028
aF0.45259567546855983
aF0.006552064268465039
aF0.09592277067704359
ag132
ag132
aF0.08950959028428923
aF0.01521748706818239
aF0.004705396998987686
aF0.009131921179554183
aF0.2594905989628281
aF0.02445485229022066
aF0.059046008456369384
aF0.10021598015485457
aF0.01779483182146495
aF0.008964604107972935
aF0.010705742796060987
aF0.3249970808392564
aF0.0050543885492482475
aF0.05436811722614618
aF0.1514904545849415
aF0.02130928725158991
aF0.008083299406770383
aF0.010080881333556299
aF0.46220755279911807
aF0.006552064268465039
aF0.0939463103502114
ag132
ag132
aF0.0894818448989118
aF0.015242341426360332
aF0.004678830307944526
aF0.007364107766043307
aF0.25365020438814556
aF0.02807951670436883
aF0.059295745617700735
aF0.10019703465804043
aF0.01780394932256256
aF0.008952083852843915
aF0.008712345486487711
aF0.32334330904730946
aF0.007956381647860276
aF0.052584958236678116
aF0.151442067843963
aF0.02129920578767714
aF0.008063908127920459
aF0.008496003216288744
aF0.4605684317508866
aF0.0007429156482104795
aF0.09556422281221148
ag132
ag132
aF0.08908723379017562
aF0.01521123589325533
aF0.004601569347910535
aF0.009348629939696127
aF0.2558743635619092
aF0.02065125127363182
aF0.058128397078078035
aF0.09999305822595049
aF0.017774809072236355
aF0.008838715873421383
aF0.010402927474563931
aF0.32217126830829435
aF0.000975449050788074
aF0.05439499452325055
aF0.1509555645669348
aF0.021317832944050194
aF0.007916272211014467
aF0.010293099504048461
aF0.45332305682010937
aF0.006552064268465039
aF0.09221992421082983
ag132
ag132
aF0.04499536487497303
aF0.015219948173578177
aF0.004644945695633833
aF0.00867361905815019
aF0.25743166930845157
aF0.02077570838059798
aF0.0580723569100362
aF0.05045583156063039
aF0.017795450698946533
aF0.008891133914531951
aF0.010083174182210717
aF0.32427153855039065
aF0.000975449050788074
aF0.05457586703646486
aF0.07572130904081449
aF0.02130904612170002
aF0.007948454397365672
aF0.010119524326577188
aF0.4541533090052534
aF0.006552064268465039
aF0.09527308406460813
ag132
ag132
aF0.08926896997291897
aF0.01521937022088366
aF0.0046460522872133715
aF0.00867361905815019
aF0.2569216927535934
aF0.02077570838059798
aF0.0580723569100362
aF0.10009214900785192
aF0.01779245661186393
aF0.008891133914531951
aF0.010083174182210717
aF0.32427153855039065
aF0.000975449050788074
aF0.054742659846060526
aF0.07572001429742072
aF0.02130862467284225
aF0.007948454397365672
aF0.010119524326577188
aF0.45417089102430996
aF0.006552064268465039
aF0.0954938588153862
ag132
ag132
aF0.045026708685154175
aF0.015229924279736252
aF0.004649152706491642
aF0.00867361905815019
aF0.2563119315965459
aF0.02077570838059798
aF0.057800280792824864
aF0.050500201989877334
aF0.017803234237610346
aF0.008895424303645458
aF0.010083174182210717
aF0.3240851655039396
aF0.000975449050788074
aF0.05474923388577453
aF0.07575607187498606
aF0.021316900327752936
aF0.007950187604485801
aF0.010119524326577188
aF0.45573387678412697
aF0.006552064268465039
aF0.09527308406460813
ag132
ag132
aF0.044960190918083114
aF0.015204812185005405
aF0.0046321628219439534
aF0.00867361905815019
aF0.25497754964922
aF0.02077570838059798
aF0.057778327340807165
aF0.05040919995110888
aF0.01777305860900605
aF0.008883583347283208
aF0.010083174182210717
aF0.32466610607116725
aF0.000975449050788074
aF0.05468174655075809
aF0.07566688835575894
aF0.02129635042251626
aF0.007941219867363705
aF0.010119524326577188
aF0.4546908425778699
aF0.006552064268465039
aF0.09524401266110746
ag132
ag132
atp221
ba(lp222
g15
(g16
(dp223
g18
g19
(g20
(I0
tp224
g22
tp225
Rp226
(I1
(I38
tp227
g29
I00
(lp228
g33
ag34
ag35
ag36
ag37
ag38
ag39
ag40
ag41
ag42
ag43
ag44
ag45
ag46
ag47
ag48
ag49
ag50
ag51
ag52
ag53
ag54
ag55
ag56
ag57
ag58
ag59
ag60
ag61
ag62
ag63
ag64
ag65
ag66
ag67
ag68
ag69
ag70
atp229
bsg72
Nstp230
Rp231
a(dp232
S'0.14.1'
p233
(dp234
S'axes'
p235
g14
sS'blocks'
p236
(lp237
(dp238
S'mgr_locs'
p239
c__builtin__
slice
p240
(I0
I38
I1
tp241
Rp242
sS'values'
p243
g93
sasstp244
bsb.