ccopy_reg
_reconstructor
p0
(cpandas.core.frame
DataFrame
p1
c__builtin__
object
p2
Ntp3
Rp4
(dp5
S'_metadata'
p6
(lp7
sS'_typ'
p8
S'dataframe'
p9
sS'_data'
p10
g0
(cpandas.core.internals
BlockManager
p11
g2
Ntp12
Rp13
((lp14
cpandas.core.indexes.base
_new_Index
p15
(cpandas.core.indexes.base
Index
p16
(dp17
S'data'
p18
cnumpy.core.multiarray
_reconstruct
p19
(cnumpy
ndarray
p20
(I0
tp21
S'b'
p22
tp23
Rp24
(I1
(I38
tp25
cnumpy
dtype
p26
(S'O8'
p27
I0
I1
tp28
Rp29
(I3
S'|'
p30
NNNI-1
I-1
I63
tp31
bI00
(lp32
S'year'
p33
aS'type'
p34
aS'procOriginal'
p35
aS'proc'
p36
aS'proc_s0'
p37
aS'cat'
p38
aS'inputWSFile'
p39
aS'nominalDataName'
p40
aS'modelWSFile'
p41
aS'model'
p42
aS'rate'
p43
aS'nominal_yield'
p44
aS'sumw2'
p45
aS'nominal_yield_COWCorr'
p46
aS'weight_electron_veto_sf_Diphoton_Photon_up_yield'
p47
aS'weight_electron_veto_sf_Diphoton_Photon_down_yield'
p48
aS'weight_electron_id_sf_SelectedElectron_up_yield'
p49
aS'weight_electron_id_sf_SelectedElectron_down_yield'
p50
aS'weight_muon_id_sfSTAT_SelectedMuon_up_yield'
p51
aS'weight_muon_id_sfSTAT_SelectedMuon_down_yield'
p52
aS'weight_muon_id_sfSYS_SelectedMuon_up_yield'
p53
aS'weight_muon_id_sfSYS_SelectedMuon_down_yield'
p54
aS'weight_trigger_sf_up_yield'
p55
aS'weight_trigger_sf_down_yield'
p56
aS'JER_up_yield'
p57
aS'JER_down_yield'
p58
aS'JES_up_yield'
p59
aS'JES_down_yield'
p60
aS'MET_JER_up_yield'
p61
aS'MET_JER_down_yield'
p62
aS'MET_JES_up_yield'
p63
aS'MET_JES_down_yield'
p64
aS'MET_Unclustered_up_yield'
p65
aS'MET_Unclustered_down_yield'
p66
aS'Muon_pt_up_yield'
p67
aS'Muon_pt_down_yield'
p68
aS'Tau_pt_up_yield'
p69
aS'Tau_pt_down_yield'
p70
atp71
bsS'name'
p72
Nstp73
Rp74
ag15
(cpandas.core.indexes.numeric
Int64Index
p75
(dp76
g18
g19
(g20
(I0
tp77
g22
tp78
Rp79
(I1
(I23
tp80
g26
(S'i8'
p81
I0
I1
tp82
Rp83
(I3
S'<'
p84
NNNI-1
I-1
I0
tp85
bI00
S'\x00\x00\x00\x00\x00\x00\x00\x00\x01\x00\x00\x00\x00\x00\x00\x00\x02\x00\x00\x00\x00\x00\x00\x00\x03\x00\x00\x00\x00\x00\x00\x00\x04\x00\x00\x00\x00\x00\x00\x00\x05\x00\x00\x00\x00\x00\x00\x00\x06\x00\x00\x00\x00\x00\x00\x00\x07\x00\x00\x00\x00\x00\x00\x00\x08\x00\x00\x00\x00\x00\x00\x00\t\x00\x00\x00\x00\x00\x00\x00\n\x00\x00\x00\x00\x00\x00\x00\x0b\x00\x00\x00\x00\x00\x00\x00\x0c\x00\x00\x00\x00\x00\x00\x00\r\x00\x00\x00\x00\x00\x00\x00\x0e\x00\x00\x00\x00\x00\x00\x00\x0f\x00\x00\x00\x00\x00\x00\x00\x10\x00\x00\x00\x00\x00\x00\x00\x11\x00\x00\x00\x00\x00\x00\x00\x12\x00\x00\x00\x00\x00\x00\x00\x13\x00\x00\x00\x00\x00\x00\x00\x14\x00\x00\x00\x00\x00\x00\x00\x15\x00\x00\x00\x00\x00\x00\x00\x16\x00\x00\x00\x00\x00\x00\x00'
p86
tp87
bsg72
Nstp88
Rp89
a(lp90
g19
(g20
(I0
tp91
g22
tp92
Rp93
(I1
(I38
I23
tp94
g29
I00
(lp95
S'2016'
p96
ag96
ag96
ag96
ag96
ag96
ag96
aS'2017'
p97
ag97
ag97
ag97
ag97
ag97
ag97
aS'2018'
p98
ag98
ag98
ag98
ag98
ag98
ag98
aS'merged'
p99
ag99
aS'sig'
p100
ag100
ag100
ag100
ag100
ag100
ag100
ag100
ag100
ag100
ag100
ag100
ag100
ag100
ag100
ag100
ag100
ag100
ag100
ag100
ag100
aS'bkg'
p101
ag18
aS'HHggTauTau'
p102
aS'HHggWWdileptonic'
p103
aS'HHggWWsemileptonic'
p104
aS'VBFH'
p105
aS'VH'
p106
aS'ggH'
p107
aS'ttH'
p108
ag102
ag103
ag104
ag105
ag106
ag107
ag108
ag102
ag103
ag104
ag105
ag106
ag107
ag108
aS'bkg_mass'
p109
aS'data_obs'
p110
aS'HHggTauTau_2016_hgg'
p111
aS'HHggWWdileptonic_2016_hgg'
p112
aS'HHggWWsemileptonic_2016_hgg'
p113
aS'VBFH_2016_hgg'
p114
aS'VH_2016_hgg'
p115
aS'ggH_2016_hgg'
p116
aS'ttH_2016_hgg'
p117
aS'HHggTauTau_2017_hgg'
p118
aS'HHggWWdileptonic_2017_hgg'
p119
aS'HHggWWsemileptonic_2017_hgg'
p120
aS'VBFH_2017_hgg'
p121
aS'VH_2017_hgg'
p122
aS'ggH_2017_hgg'
p123
aS'ttH_2017_hgg'
p124
aS'HHggTauTau_2018_hgg'
p125
aS'HHggWWdileptonic_2018_hgg'
p126
aS'HHggWWsemileptonic_2018_hgg'
p127
aS'VBFH_2018_hgg'
p128
aS'VH_2018_hgg'
p129
aS'ggH_2018_hgg'
p130
aS'ttH_2018_hgg'
p131
ag109
ag110
ag102
ag103
ag104
ag105
ag106
ag107
ag108
ag102
ag103
ag104
ag105
ag106
ag107
ag108
ag102
ag103
ag104
ag105
ag106
ag107
ag108
aS'-'
p132
ag132
aS'SR2'
p133
ag133
ag133
ag133
ag133
ag133
ag133
ag133
ag133
ag133
ag133
ag133
ag133
ag133
ag133
ag133
ag133
ag133
ag133
ag133
ag133
ag133
ag133
aS'/home/users/fsetti/ic_flashgg/CMSSW_10_2_13/src/flashggFinalFit/files_systs/10Apr2022//ws_signal_2016/output_HHggTauTau_M125_13TeV_pythia8_HHggTauTau.root'
p134
aS'/home/users/fsetti/ic_flashgg/CMSSW_10_2_13/src/flashggFinalFit/files_systs/10Apr2022//ws_signal_2016/output_HHggWWdileptonic_M125_13TeV_pythia8_HHggWWdileptonic.root'
p135
aS'/home/users/fsetti/ic_flashgg/CMSSW_10_2_13/src/flashggFinalFit/files_systs/10Apr2022//ws_signal_2016/output_HHggWWsemileptonic_M125_13TeV_pythia8_HHggWWsemileptonic.root'
p136
aS'/home/users/fsetti/ic_flashgg/CMSSW_10_2_13/src/flashggFinalFit/files_systs/10Apr2022//ws_signal_2016/output_VBFH_M125_13TeV_pythia8_VBFH.root'
p137
aS'/home/users/fsetti/ic_flashgg/CMSSW_10_2_13/src/flashggFinalFit/files_systs/10Apr2022//ws_signal_2016/output_VH_M125_13TeV_pythia8_VH.root'
p138
aS'/home/users/fsetti/ic_flashgg/CMSSW_10_2_13/src/flashggFinalFit/files_systs/10Apr2022//ws_signal_2016/output_ggH_M125_13TeV_pythia8_ggH.root'
p139
aS'/home/users/fsetti/ic_flashgg/CMSSW_10_2_13/src/flashggFinalFit/files_systs/10Apr2022//ws_signal_2016/output_ttH_M125_13TeV_pythia8_ttH.root'
p140
aS'/home/users/fsetti/ic_flashgg/CMSSW_10_2_13/src/flashggFinalFit/files_systs/10Apr2022//ws_signal_2017/output_HHggTauTau_M125_13TeV_pythia8_HHggTauTau.root'
p141
aS'/home/users/fsetti/ic_flashgg/CMSSW_10_2_13/src/flashggFinalFit/files_systs/10Apr2022//ws_signal_2017/output_HHggWWdileptonic_M125_13TeV_pythia8_HHggWWdileptonic.root'
p142
aS'/home/users/fsetti/ic_flashgg/CMSSW_10_2_13/src/flashggFinalFit/files_systs/10Apr2022//ws_signal_2017/output_HHggWWsemileptonic_M125_13TeV_pythia8_HHggWWsemileptonic.root'
p143
aS'/home/users/fsetti/ic_flashgg/CMSSW_10_2_13/src/flashggFinalFit/files_systs/10Apr2022//ws_signal_2017/output_VBFH_M125_13TeV_pythia8_VBFH.root'
p144
aS'/home/users/fsetti/ic_flashgg/CMSSW_10_2_13/src/flashggFinalFit/files_systs/10Apr2022//ws_signal_2017/output_VH_M125_13TeV_pythia8_VH.root'
p145
aS'/home/users/fsetti/ic_flashgg/CMSSW_10_2_13/src/flashggFinalFit/files_systs/10Apr2022//ws_signal_2017/output_ggH_M125_13TeV_pythia8_ggH.root'
p146
aS'/home/users/fsetti/ic_flashgg/CMSSW_10_2_13/src/flashggFinalFit/files_systs/10Apr2022//ws_signal_2017/output_ttH_M125_13TeV_pythia8_ttH.root'
p147
aS'/home/users/fsetti/ic_flashgg/CMSSW_10_2_13/src/flashggFinalFit/files_systs/10Apr2022//ws_signal_2018/output_HHggTauTau_M125_13TeV_pythia8_HHggTauTau.root'
p148
aS'/home/users/fsetti/ic_flashgg/CMSSW_10_2_13/src/flashggFinalFit/files_systs/10Apr2022//ws_signal_2018/output_HHggWWdileptonic_M125_13TeV_pythia8_HHggWWdileptonic.root'
p149
aS'/home/users/fsetti/ic_flashgg/CMSSW_10_2_13/src/flashggFinalFit/files_systs/10Apr2022//ws_signal_2018/output_HHggWWsemileptonic_M125_13TeV_pythia8_HHggWWsemileptonic.root'
p150
aS'/home/users/fsetti/ic_flashgg/CMSSW_10_2_13/src/flashggFinalFit/files_systs/10Apr2022//ws_signal_2018/output_VBFH_M125_13TeV_pythia8_VBFH.root'
p151
aS'/home/users/fsetti/ic_flashgg/CMSSW_10_2_13/src/flashggFinalFit/files_systs/10Apr2022//ws_signal_2018/output_VH_M125_13TeV_pythia8_VH.root'
p152
aS'/home/users/fsetti/ic_flashgg/CMSSW_10_2_13/src/flashggFinalFit/files_systs/10Apr2022//ws_signal_2018/output_ggH_M125_13TeV_pythia8_ggH.root'
p153
aS'/home/users/fsetti/ic_flashgg/CMSSW_10_2_13/src/flashggFinalFit/files_systs/10Apr2022//ws_signal_2018/output_ttH_M125_13TeV_pythia8_ttH.root'
p154
ag132
ag132
aS'HHggTauTau_125_13TeV_SR2'
p155
aS'HHggWWdileptonic_125_13TeV_SR2'
p156
aS'HHggWWsemileptonic_125_13TeV_SR2'
p157
aS'VBFH_125_13TeV_SR2'
p158
aS'VH_125_13TeV_SR2'
p159
aS'ggH_125_13TeV_SR2'
p160
aS'ttH_125_13TeV_SR2'
p161
aS'HHggTauTau_125_13TeV_SR2'
p162
aS'HHggWWdileptonic_125_13TeV_SR2'
p163
aS'HHggWWsemileptonic_125_13TeV_SR2'
p164
aS'VBFH_125_13TeV_SR2'
p165
aS'VH_125_13TeV_SR2'
p166
aS'ggH_125_13TeV_SR2'
p167
aS'ttH_125_13TeV_SR2'
p168
aS'HHggTauTau_125_13TeV_SR2'
p169
aS'HHggWWdileptonic_125_13TeV_SR2'
p170
aS'HHggWWsemileptonic_125_13TeV_SR2'
p171
aS'VBFH_125_13TeV_SR2'
p172
aS'VH_125_13TeV_SR2'
p173
aS'ggH_125_13TeV_SR2'
p174
aS'ttH_125_13TeV_SR2'
p175
ag132
ag132
aS'./Models/signal/CMS-HGG_sigfit_packaged_SR2.root'
p176
aS'./Models/signal/CMS-HGG_sigfit_packaged_SR2.root'
p177
aS'./Models/signal/CMS-HGG_sigfit_packaged_SR2.root'
p178
aS'./Models/signal/CMS-HGG_sigfit_packaged_SR2.root'
p179
aS'./Models/signal/CMS-HGG_sigfit_packaged_SR2.root'
p180
aS'./Models/signal/CMS-HGG_sigfit_packaged_SR2.root'
p181
aS'./Models/signal/CMS-HGG_sigfit_packaged_SR2.root'
p182
aS'./Models/signal/CMS-HGG_sigfit_packaged_SR2.root'
p183
aS'./Models/signal/CMS-HGG_sigfit_packaged_SR2.root'
p184
aS'./Models/signal/CMS-HGG_sigfit_packaged_SR2.root'
p185
aS'./Models/signal/CMS-HGG_sigfit_packaged_SR2.root'
p186
aS'./Models/signal/CMS-HGG_sigfit_packaged_SR2.root'
p187
aS'./Models/signal/CMS-HGG_sigfit_packaged_SR2.root'
p188
aS'./Models/signal/CMS-HGG_sigfit_packaged_SR2.root'
p189
aS'./Models/signal/CMS-HGG_sigfit_packaged_SR2.root'
p190
aS'./Models/signal/CMS-HGG_sigfit_packaged_SR2.root'
p191
aS'./Models/signal/CMS-HGG_sigfit_packaged_SR2.root'
p192
aS'./Models/signal/CMS-HGG_sigfit_packaged_SR2.root'
p193
aS'./Models/signal/CMS-HGG_sigfit_packaged_SR2.root'
p194
aS'./Models/signal/CMS-HGG_sigfit_packaged_SR2.root'
p195
aS'./Models/signal/CMS-HGG_sigfit_packaged_SR2.root'
p196
aS'./Models/background/CMS-HGG_multipdf_SR2.root'
p197
ag197
aS'wsig_13TeV:hggpdfsmrel_HHggTauTau_2016_SR2_13TeV'
p198
aS'wsig_13TeV:hggpdfsmrel_HHggWWdileptonic_2016_SR2_13TeV'
p199
aS'wsig_13TeV:hggpdfsmrel_HHggWWsemileptonic_2016_SR2_13TeV'
p200
aS'wsig_13TeV:hggpdfsmrel_VBFH_2016_SR2_13TeV'
p201
aS'wsig_13TeV:hggpdfsmrel_VH_2016_SR2_13TeV'
p202
aS'wsig_13TeV:hggpdfsmrel_ggH_2016_SR2_13TeV'
p203
aS'wsig_13TeV:hggpdfsmrel_ttH_2016_SR2_13TeV'
p204
aS'wsig_13TeV:hggpdfsmrel_HHggTauTau_2017_SR2_13TeV'
p205
aS'wsig_13TeV:hggpdfsmrel_HHggWWdileptonic_2017_SR2_13TeV'
p206
aS'wsig_13TeV:hggpdfsmrel_HHggWWsemileptonic_2017_SR2_13TeV'
p207
aS'wsig_13TeV:hggpdfsmrel_VBFH_2017_SR2_13TeV'
p208
aS'wsig_13TeV:hggpdfsmrel_VH_2017_SR2_13TeV'
p209
aS'wsig_13TeV:hggpdfsmrel_ggH_2017_SR2_13TeV'
p210
aS'wsig_13TeV:hggpdfsmrel_ttH_2017_SR2_13TeV'
p211
aS'wsig_13TeV:hggpdfsmrel_HHggTauTau_2018_SR2_13TeV'
p212
aS'wsig_13TeV:hggpdfsmrel_HHggWWdileptonic_2018_SR2_13TeV'
p213
aS'wsig_13TeV:hggpdfsmrel_HHggWWsemileptonic_2018_SR2_13TeV'
p214
aS'wsig_13TeV:hggpdfsmrel_VBFH_2018_SR2_13TeV'
p215
aS'wsig_13TeV:hggpdfsmrel_VH_2018_SR2_13TeV'
p216
aS'wsig_13TeV:hggpdfsmrel_ggH_2018_SR2_13TeV'
p217
aS'wsig_13TeV:hggpdfsmrel_ttH_2018_SR2_13TeV'
p218
aS'multipdf:CMS_hgg_SR2_13TeV_bkgshape'
p219
aS'multipdf:roohist_data_mass_SR2'
p220
aI1000
aI1000
aI1000
aI1000
aI1000
aI1000
aI1000
aI1000
aI1000
aI1000
aI1000
aI1000
aI1000
aI1000
aI1000
aI1000
aI1000
aI1000
aI1000
aI1000
aI1000
aF1.0
aI-1
aF0.017943167417242847
aF0.0037859103336657374
aF0.005073372956404601
aF0.03629795645351387
aF0.2612363247342023
aF0.062118533760384655
aF0.09455280385140989
aF0.01790116030903104
aF0.0041074138083235625
aF0.007283968074619652
aF0.03826259095071526
aF0.3386148408337436
aF0.10816784401661768
aF0.09490673434352848
aF0.030682558025352222
aF0.005239512257988705
aF0.008781699778240401
aF0.05114051132884604
aF0.4806775316964755
aF0.17361268059830753
aF0.14860586275256604
ag132
ag132
aF1.898147596022097e-08
aF1.3640663831101137e-09
aF8.037285527971112e-09
aF3.3755492457591325e-05
aF0.0001588863970774427
aF0.00023051967424565534
aF4.350832296102163e-05
aF2.004302188820319e-08
aF1.5359835852799697e-09
aF1.2585262405917148e-08
aF7.683400439939852e-05
aF0.0002084760506294538
aF0.0010675234081233024
aF4.723418549375812e-05
aF5.110125424970839e-08
aF2.3783081951989193e-09
aF2.2534923657285614e-08
aF0.00015906907013511014
aF0.0004455346418757754
aF0.0018632096883016928
aF0.00010736075293524181
ag132
ag132
aF0.017943167417242847
aF0.0037859103336657374
aF0.005073372956404601
aF0.03629795645351387
aF0.2612363247342023
aF0.062118533760384655
aF0.09455280385140989
aF0.01790116030903104
aF0.0041074138083235625
aF0.007283968074619652
aF0.03826259095071526
aF0.3386148408337436
aF0.10816784401661768
aF0.09490673434352848
aF0.030682558025352222
aF0.005239512257988705
aF0.008781699778240401
aF0.05114051132884604
aF0.4806775316964755
aF0.17361268059830753
aF0.14860586275256604
ag132
ag132
aF0.01781125539675899
aF0.003757106596448101
aF0.005037367903993336
aF0.036030199563717565
aF0.2592321709828348
aF0.0616383321498843
aF0.0938232194925735
aF0.017546584065158948
aF0.004024009238922643
aF0.007143950843234762
aF0.03758624539029094
aF0.33177285819074565
aF0.10620670148672094
aF0.09315761946824906
aF0.030105454263524848
aF0.005136369992409496
aF0.008626679162568726
aF0.05025587718458387
aF0.4714419670832277
aF0.17090804427534684
aF0.14620434038862962
ag132
ag132
aF0.017737014001631416
aF0.0037403474566787224
aF0.005017434739417359
aF0.0359204218136133
aF0.25812943781844105
aF0.06137370961772658
aF0.09342548697863093
aF0.017439705860633387
aF0.003998143435493358
aF0.007102570206880738
aF0.03740069816541412
aF0.3297721896398148
aF0.10583426569297198
aF0.09269143159301009
aF0.029996176152834213
aF0.00511648810960336
aF0.008597990169211147
aF0.050083856737984836
aF0.46969185753071363
aF0.17041197114036857
aF0.14579271257835663
ag132
ag132
aF0.01792124596294919
aF0.003766380111709394
aF0.005068045735266364
aF0.03628358650266889
aF0.26102491931705996
aF0.06209150341787551
aF0.09417247007146366
aF0.01786183811055226
aF0.004070572884334405
aF0.007271171687937242
aF0.03823716400790586
aF0.3379588335426547
aF0.108124325334934
aF0.09428277912161187
aF0.030604052504960007
aF0.005184440202201181
aF0.008764948954254868
aF0.051086611035175124
aF0.4800377043976626
aF0.17383114402625058
aF0.14752509970095645
ag132
ag132
aF0.017865410739147353
aF0.0037263352757516692
aF0.0050564451089765115
aF0.036252925977518266
aF0.2605808773961075
aF0.06196444031606879
aF0.0932821741056301
aF0.017808978586898717
aF0.004028054950191268
aF0.007255240833248514
aF0.038208960175113264
aF0.33724552883895736
aF0.10821136269830135
aF0.09342832620533881
aF0.03049783133272763
aF0.005126894810136326
aF0.00874505024636516
aF0.05100822804768856
aF0.47941450640948835
aF0.17400684335191186
aF0.1461893719489084
ag132
ag132
aF0.01793581908313471
aF0.0037820812665570473
aF0.005072337799948688
aF0.03633075165029606
aF0.2611864903214217
aF0.06214884690342982
aF0.09441527297676637
aF0.01791422897974601
aF0.004116250320569212
aF0.00728722846403636
aF0.03829785443462162
aF0.33876814884513673
aF0.1081671360731102
aF0.09503904874929547
aF0.030656688797267802
aF0.005228340607898042
aF0.008778115715276553
aF0.051134643715788484
aF0.48048637422107116
aF0.17361268059830753
aF0.14839006540596233
ag132
ag132
aF0.017926644414115935
aF0.0037768223563355834
aF0.0050708400265642535
aF0.036323533783009905
aF0.2611429233865962
aF0.06213744573050484
aF0.09431429930996793
aF0.01790603890269359
aF0.004110518297004625
aF0.0072846893716585
aF0.03829078870823157
aF0.33867973745700897
aF0.1081664686584538
aF0.09493847576437885
aF0.03064556775579001
aF0.005223234692338042
aF0.008776370192379679
aF0.051128302647663514
aF0.4804049817505509
aF0.17361268059830753
aF0.1482764592438386
ag132
ag132
aF0.017951489548593973
aF0.0037907183107483058
aF0.005074686983859293
aF0.036331788227834186
aF0.26125123563055663
aF0.062143830824849866
aF0.09461201879548908
aF0.01792707302615514
aF0.00412552862464399
aF0.007291355220132364
aF0.0382983134525183
aF0.33889536895141775
aF0.10817117880115613
aF0.09520558006700701
aF0.030685000021241207
aF0.005240879807415
aF0.008782472671161966
aF0.051140058823737934
aF0.48068988976757904
aF0.17361268059830753
aF0.1486444053507848
ag132
ag132
aF0.01791097852715742
aF0.003768193894837664
aF0.005068490964889482
aF0.03632249706711146
aF0.2610784292268223
aF0.062142433428760906
aF0.0941179916380417
aF0.017893201697345335
aF0.00410124972507795
aF0.007280563747449725
aF0.03829032954603186
aF0.33855283913943235
aF0.10816241864014832
aF0.09477207067655503
aF0.030617270824212072
aF0.005210708742827658
aF0.008772014266442502
aF0.05112286543807768
aF0.4802016312620151
aF0.17361268059830753
aF0.14802247868718243
ag132
ag132
aF0.01774339457263415
aF0.0037397188163559273
aF0.005028185851034102
aF0.03602099280770456
aF0.2593501047971718
aF0.061408216555742884
aF0.09373176217956439
aF0.0176388270464572
aF0.004039051690099658
aF0.007187364761976124
aF0.0378977401890451
aF0.33438053935898226
aF0.10755710070638361
aF0.09373148498343449
aF0.030322488684238542
aF0.005171782564188044
aF0.008691146344335534
aF0.050422349493190646
aF0.4752558597254368
aF0.1716664943262713
aF0.14704408991935924
ag132
ag132
aF0.01766610744563193
aF0.003723232643408623
aF0.005007104474841823
aF0.03588012703383613
aF0.2583029024158874
aF0.061113826833324635
aF0.09336522390042917
aF0.017545023936964558
aF0.004016830730557977
aF0.00715040747775322
aF0.03772291677575139
aF0.33253365303624555
aF0.10705787405160479
aF0.09328058131627401
aF0.030183383419833284
aF0.005147514399794393
aF0.008652752136083597
aF0.05018468807456544
aF0.47307880397584434
aF0.1709021114504494
aF0.1463623270186957
ag132
ag132
aF0.034935493474275534
aF0.003789421546521038
aF0.005069954698039606
aF0.03686477079694472
aF0.26190286707768057
aF0.06366145620180641
aF0.09432296180884688
aF0.034715256631447027
aF0.004106340561780201
aF0.007289126610191157
aF0.038895920339102934
aF0.3379355829400626
aF0.10417218582822625
aF0.09488663465147515
aF0.059815426764787336
aF0.005241680177779601
aF0.008794419103298015
aF0.04870925320997731
aF0.4817412664468156
aF0.17361268059830753
aF0.1489952645123768
ag132
ag132
aF0.03492660524430074
aF0.0037858025511917385
aF0.005080253142310746
aF0.03628540696200769
aF0.26128501104959007
aF0.06211853376038466
aF0.09469420658009671
aF0.034712514736892956
aF0.00410736412768994
aF0.007278353099323391
aF0.038284225250660164
aF0.33933560616390873
aF0.1046142604516508
aF0.09489808909478865
aF0.05979481906513261
aF0.005236237938244167
aF0.008796804032122936
aF0.05352679814148692
aF0.4792203867951023
aF0.17361268059830753
aF0.14901954758972222
ag132
ag132
aF0.03490934299371383
aF0.003795620630331899
aF0.005071707401323884
aF0.036297956453513885
aF0.2625439615880009
aF0.06057520027700595
aF0.09367990139422504
aF0.034724358847534824
aF0.0041123703899575564
aF0.0072767224623472935
aF0.038262590950715256
aF0.3376656834018424
aF0.10816784401661768
aF0.0935685596499791
aF0.05977151903081167
aF0.005251154483811047
aF0.008780198814646473
aF0.050933400236457205
aF0.47802506866319583
aF0.17361268059830753
aF0.14836520067616749
ag132
ag132
aF0.034954777542973894
aF0.0037854570549853317
aF0.005077733513826432
aF0.036332181382151205
aF0.260539565755622
aF0.06366145620180641
aF0.09628704717949342
aF0.03467890456539946
aF0.004103878152034847
aF0.007296892305395527
aF0.03826068443524403
aF0.3389876667636579
aF0.10061860226325937
aF0.09673884179157598
aF0.05977129589679892
aF0.005227600923649541
aF0.008832802561042366
aF0.049582638074444844
aF0.4797498970285892
aF0.17891844836099952
aF0.1518622921096623
ag132
ag132
aF0.034984859604958195
aF0.003786627720671393
aF0.005071951092371406
aF0.034260703759645975
aF0.26207730422201003
aF0.05630870842223964
aF0.09436516550643854
aF0.034693997512215566
aF0.00411138421707029
aF0.00735035236035135
aF0.03599608833219317
aF0.33778268963766434
aF0.11987383886067285
aF0.09471677397198172
aF0.05986193264392951
aF0.005237203148272352
aF0.008812381086751322
aF0.05639951089946602
aF0.479605878553596
aF0.15145973707581234
aF0.14942694272531293
ag132
ag132
aF0.03492897114836071
aF0.0037929778126811783
aF0.005076571465802218
aF0.03029314919846296
aF0.2601397128649065
aF0.062223767026246386
aF0.09118419608909217
aF0.03471560723705402
aF0.004109455681233726
aF0.007275155354962473
aF0.032189582225158914
aF0.3387731197449355
aF0.10395365193721283
aF0.09446568949353412
aF0.05976162414116819
aF0.0052477691458312145
aF0.008762117463136765
aF0.051086416362816106
aF0.4786847969731843
aF0.17527738892467926
aF0.14614076071265555
ag132
ag132
aF0.03499744599035641
aF0.0037824765295218954
aF0.005069115308317647
aF0.03521865033132333
aF0.26114714890405427
aF0.0644541937888061
aF0.09413238526969364
aF0.03464913211829811
aF0.004111834798594269
aF0.00729989636956332
aF0.03719285373460036
aF0.34399588042331214
aF0.11606332251615677
aF0.09438530891913342
aF0.059759899964719684
aF0.005238034470804147
aF0.008748664471591025
aF0.05300514451951077
aF0.47755283218705363
aF0.15693514641811843
aF0.14640800297774048
ag132
ag132
aF0.03488330895883607
aF0.003795551411053466
aF0.005081079458720097
aF0.03624421861251982
aF0.26472811899279314
aF0.05887477005747273
aF0.09311850135666011
aF0.034729486591120476
aF0.004105469058650509
aF0.007318525123612489
aF0.03821576643963414
aF0.33940649375562965
aF0.12207997683362075
aF0.09513547687733095
aF0.05981178831983422
aF0.005241727442736986
aF0.00880980216070263
aF0.05459610837746928
aF0.4803820070378832
aF0.16768444023184764
aF0.148529063119169
ag132
ag132
aF0.03497395737614882
aF0.00377569584953871
aF0.005136607387801989
aF0.04239230785129947
aF0.269709464918259
aF0.055340918962595693
aF0.09601536386474106
aF0.03477005557922965
aF0.004104773987569384
aF0.007357750945491639
aF0.04437381731074656
aF0.3442450994342012
aF0.10947149060030216
aF0.09565012314916775
aF0.05997207333165999
aF0.005258154152552443
aF0.008828093939099932
aF0.054272968577096264
aF0.48309955668264704
aF0.19041249106703864
aF0.14639671671922497
ag132
ag132
aF0.03492413686594488
aF0.0037919856810565648
aF0.0051137311324295385
aF0.03007099002797102
aF0.2611099530038395
aF0.06478770582603674
aF0.09559677701610951
aF0.034674596033133394
aF0.0041145458583637514
aF0.007239860829681456
aF0.03196516640867982
aF0.34332260028775885
aF0.10582596563747962
aF0.09554445859961874
aF0.0597454954717209
aF0.005218301142864333
aF0.008682534796596785
aF0.046410399044755954
aF0.48010656388971806
aF0.16409913435986334
aF0.15070859933661518
ag132
ag132
aF0.017944117648481684
aF0.003786061688187438
aF0.005073372956404609
aF0.036297956453513885
aF0.2612363247342023
aF0.06211853376038466
aF0.09426581033060992
aF0.017901218358520356
aF0.004106943676203383
aF0.0072839680746196464
aF0.038262590950715256
aF0.3386148408337427
aF0.10816784401661768
aF0.09490673434352838
aF0.030681047051192838
aF0.005239884118195205
aF0.008781699778240391
aF0.05114051132884605
aF0.48067753169647526
aF0.17361268059830753
aF0.1486058627525659
ag132
ag132
aF0.03494358531598206
aF0.003785544430540938
aF0.00507226636482507
aF0.036297956453513885
aF0.2612363247342023
aF0.06211853376038466
aF0.09455280385140988
aF0.01790116030903103
aF0.004108496175272655
aF0.0072839680746196464
aF0.038262590950715256
aF0.3386148408337427
aF0.10816784401661768
aF0.09505856890647046
aF0.03068249130088522
aF0.005239573451344616
aF0.008781699778240391
aF0.05114051132884605
aF0.48029028379236505
aF0.17361268059830753
aF0.14816136498706253
ag132
ag132
aF0.017955907759779483
aF0.0037914292830006874
aF0.005081501071275873
aF0.036297956453513885
aF0.2612804716501976
aF0.06211853376038466
aF0.09483740585322797
aF0.017923042689059268
aF0.004111336112591581
aF0.007285750561248538
aF0.038262590950715256
aF0.33986528214484835
aF0.10816784401661768
aF0.09457931909830077
aF0.03068675901189908
aF0.005240836323599785
aF0.008790033187999324
aF0.05114051132884605
aF0.4812011433751715
aF0.17361268059830753
aF0.14836931509981238
ag132
ag132
aF0.017923102334375572
aF0.003781223384767603
aF0.0050655768967519214
aF0.036297956453513885
aF0.2623867815610217
aF0.06211853376038466
aF0.09457049391421098
aF0.017860360513628385
aF0.0041003240875659664
aF0.007269337641928897
aF0.038262590950715256
aF0.33751590913055873
aF0.10816784401661768
aF0.09432586106523505
aF0.03067835660304449
aF0.005233256270865787
aF0.008772906052409027
aF0.05114051132884605
aF0.48008009092730186
aF0.17361268059830753
aF0.1481901384568276
ag132
ag132
atp221
ba(lp222
g15
(g16
(dp223
g18
g19
(g20
(I0
tp224
g22
tp225
Rp226
(I1
(I38
tp227
g29
I00
(lp228
g33
ag34
ag35
ag36
ag37
ag38
ag39
ag40
ag41
ag42
ag43
ag44
ag45
ag46
ag47
ag48
ag49
ag50
ag51
ag52
ag53
ag54
ag55
ag56
ag57
ag58
ag59
ag60
ag61
ag62
ag63
ag64
ag65
ag66
ag67
ag68
ag69
ag70
atp229
bsg72
Nstp230
Rp231
a(dp232
S'0.14.1'
p233
(dp234
S'axes'
p235
g14
sS'blocks'
p236
(lp237
(dp238
S'mgr_locs'
p239
c__builtin__
slice
p240
(I0
I38
I1
tp241
Rp242
sS'values'
p243
g93
sasstp244
bsb.