ccopy_reg
_reconstructor
p0
(cpandas.core.frame
DataFrame
p1
c__builtin__
object
p2
Ntp3
Rp4
(dp5
S'_metadata'
p6
(lp7
sS'_typ'
p8
S'dataframe'
p9
sS'_data'
p10
g0
(cpandas.core.internals
BlockManager
p11
g2
Ntp12
Rp13
((lp14
cpandas.core.indexes.base
_new_Index
p15
(cpandas.core.indexes.base
Index
p16
(dp17
S'data'
p18
cnumpy.core.multiarray
_reconstruct
p19
(cnumpy
ndarray
p20
(I0
tp21
S'b'
p22
tp23
Rp24
(I1
(I38
tp25
cnumpy
dtype
p26
(S'O8'
p27
I0
I1
tp28
Rp29
(I3
S'|'
p30
NNNI-1
I-1
I63
tp31
bI00
(lp32
S'year'
p33
aS'type'
p34
aS'procOriginal'
p35
aS'proc'
p36
aS'proc_s0'
p37
aS'cat'
p38
aS'inputWSFile'
p39
aS'nominalDataName'
p40
aS'modelWSFile'
p41
aS'model'
p42
aS'rate'
p43
aS'nominal_yield'
p44
aS'sumw2'
p45
aS'nominal_yield_COWCorr'
p46
aS'weight_electron_veto_sf_Diphoton_Photon_up_yield'
p47
aS'weight_electron_veto_sf_Diphoton_Photon_down_yield'
p48
aS'weight_electron_id_sf_SelectedElectron_up_yield'
p49
aS'weight_electron_id_sf_SelectedElectron_down_yield'
p50
aS'weight_muon_id_sfSTAT_SelectedMuon_up_yield'
p51
aS'weight_muon_id_sfSTAT_SelectedMuon_down_yield'
p52
aS'weight_muon_id_sfSYS_SelectedMuon_up_yield'
p53
aS'weight_muon_id_sfSYS_SelectedMuon_down_yield'
p54
aS'weight_trigger_sf_up_yield'
p55
aS'weight_trigger_sf_down_yield'
p56
aS'JER_up_yield'
p57
aS'JER_down_yield'
p58
aS'JES_up_yield'
p59
aS'JES_down_yield'
p60
aS'MET_JER_up_yield'
p61
aS'MET_JER_down_yield'
p62
aS'MET_JES_up_yield'
p63
aS'MET_JES_down_yield'
p64
aS'MET_Unclustered_up_yield'
p65
aS'MET_Unclustered_down_yield'
p66
aS'Muon_pt_up_yield'
p67
aS'Muon_pt_down_yield'
p68
aS'Tau_pt_up_yield'
p69
aS'Tau_pt_down_yield'
p70
atp71
bsS'name'
p72
Nstp73
Rp74
ag15
(cpandas.core.indexes.numeric
Int64Index
p75
(dp76
g18
g19
(g20
(I0
tp77
g22
tp78
Rp79
(I1
(I23
tp80
g26
(S'i8'
p81
I0
I1
tp82
Rp83
(I3
S'<'
p84
NNNI-1
I-1
I0
tp85
bI00
S'\x00\x00\x00\x00\x00\x00\x00\x00\x01\x00\x00\x00\x00\x00\x00\x00\x02\x00\x00\x00\x00\x00\x00\x00\x03\x00\x00\x00\x00\x00\x00\x00\x04\x00\x00\x00\x00\x00\x00\x00\x05\x00\x00\x00\x00\x00\x00\x00\x06\x00\x00\x00\x00\x00\x00\x00\x07\x00\x00\x00\x00\x00\x00\x00\x08\x00\x00\x00\x00\x00\x00\x00\t\x00\x00\x00\x00\x00\x00\x00\n\x00\x00\x00\x00\x00\x00\x00\x0b\x00\x00\x00\x00\x00\x00\x00\x0c\x00\x00\x00\x00\x00\x00\x00\r\x00\x00\x00\x00\x00\x00\x00\x0e\x00\x00\x00\x00\x00\x00\x00\x0f\x00\x00\x00\x00\x00\x00\x00\x10\x00\x00\x00\x00\x00\x00\x00\x11\x00\x00\x00\x00\x00\x00\x00\x12\x00\x00\x00\x00\x00\x00\x00\x13\x00\x00\x00\x00\x00\x00\x00\x14\x00\x00\x00\x00\x00\x00\x00\x15\x00\x00\x00\x00\x00\x00\x00\x16\x00\x00\x00\x00\x00\x00\x00'
p86
tp87
bsg72
Nstp88
Rp89
a(lp90
g19
(g20
(I0
tp91
g22
tp92
Rp93
(I1
(I38
I23
tp94
g29
I00
(lp95
S'2016'
p96
ag96
ag96
ag96
ag96
ag96
ag96
aS'2017'
p97
ag97
ag97
ag97
ag97
ag97
ag97
aS'2018'
p98
ag98
ag98
ag98
ag98
ag98
ag98
aS'merged'
p99
ag99
aS'sig'
p100
ag100
ag100
ag100
ag100
ag100
ag100
ag100
ag100
ag100
ag100
ag100
ag100
ag100
ag100
ag100
ag100
ag100
ag100
ag100
ag100
aS'bkg'
p101
ag18
aS'HHggTauTau'
p102
aS'HHggWWdileptonic'
p103
aS'HHggWWsemileptonic'
p104
aS'VBFH'
p105
aS'VH'
p106
aS'ggH'
p107
aS'ttH'
p108
ag102
ag103
ag104
ag105
ag106
ag107
ag108
ag102
ag103
ag104
ag105
ag106
ag107
ag108
aS'bkg_mass'
p109
aS'data_obs'
p110
aS'HHggTauTau_2016_hgg'
p111
aS'HHggWWdileptonic_2016_hgg'
p112
aS'HHggWWsemileptonic_2016_hgg'
p113
aS'VBFH_2016_hgg'
p114
aS'VH_2016_hgg'
p115
aS'ggH_2016_hgg'
p116
aS'ttH_2016_hgg'
p117
aS'HHggTauTau_2017_hgg'
p118
aS'HHggWWdileptonic_2017_hgg'
p119
aS'HHggWWsemileptonic_2017_hgg'
p120
aS'VBFH_2017_hgg'
p121
aS'VH_2017_hgg'
p122
aS'ggH_2017_hgg'
p123
aS'ttH_2017_hgg'
p124
aS'HHggTauTau_2018_hgg'
p125
aS'HHggWWdileptonic_2018_hgg'
p126
aS'HHggWWsemileptonic_2018_hgg'
p127
aS'VBFH_2018_hgg'
p128
aS'VH_2018_hgg'
p129
aS'ggH_2018_hgg'
p130
aS'ttH_2018_hgg'
p131
ag109
ag110
ag102
ag103
ag104
ag105
ag106
ag107
ag108
ag102
ag103
ag104
ag105
ag106
ag107
ag108
ag102
ag103
ag104
ag105
ag106
ag107
ag108
aS'-'
p132
ag132
aS'SR1'
p133
ag133
ag133
ag133
ag133
ag133
ag133
ag133
ag133
ag133
ag133
ag133
ag133
ag133
ag133
ag133
ag133
ag133
ag133
ag133
ag133
ag133
ag133
aS'/home/users/fsetti/ic_flashgg/CMSSW_10_2_13/src/flashggFinalFit/files_systs/06Apr2022_fullData//ws_signal_2016/output_HHggTauTau_M125_13TeV_pythia8_HHggTauTau.root'
p134
aS'/home/users/fsetti/ic_flashgg/CMSSW_10_2_13/src/flashggFinalFit/files_systs/06Apr2022_fullData//ws_signal_2016/output_HHggWWdileptonic_M125_13TeV_pythia8_HHggWWdileptonic.root'
p135
aS'/home/users/fsetti/ic_flashgg/CMSSW_10_2_13/src/flashggFinalFit/files_systs/06Apr2022_fullData//ws_signal_2016/output_HHggWWsemileptonic_M125_13TeV_pythia8_HHggWWsemileptonic.root'
p136
aS'/home/users/fsetti/ic_flashgg/CMSSW_10_2_13/src/flashggFinalFit/files_systs/06Apr2022_fullData//ws_signal_2016/output_VBFH_M125_13TeV_pythia8_VBFH.root'
p137
aS'/home/users/fsetti/ic_flashgg/CMSSW_10_2_13/src/flashggFinalFit/files_systs/06Apr2022_fullData//ws_signal_2016/output_VH_M125_13TeV_pythia8_VH.root'
p138
aS'/home/users/fsetti/ic_flashgg/CMSSW_10_2_13/src/flashggFinalFit/files_systs/06Apr2022_fullData//ws_signal_2016/output_ggH_M125_13TeV_pythia8_ggH.root'
p139
aS'/home/users/fsetti/ic_flashgg/CMSSW_10_2_13/src/flashggFinalFit/files_systs/06Apr2022_fullData//ws_signal_2016/output_ttH_M125_13TeV_pythia8_ttH.root'
p140
aS'/home/users/fsetti/ic_flashgg/CMSSW_10_2_13/src/flashggFinalFit/files_systs/06Apr2022_fullData//ws_signal_2017/output_HHggTauTau_M125_13TeV_pythia8_HHggTauTau.root'
p141
aS'/home/users/fsetti/ic_flashgg/CMSSW_10_2_13/src/flashggFinalFit/files_systs/06Apr2022_fullData//ws_signal_2017/output_HHggWWdileptonic_M125_13TeV_pythia8_HHggWWdileptonic.root'
p142
aS'/home/users/fsetti/ic_flashgg/CMSSW_10_2_13/src/flashggFinalFit/files_systs/06Apr2022_fullData//ws_signal_2017/output_HHggWWsemileptonic_M125_13TeV_pythia8_HHggWWsemileptonic.root'
p143
aS'/home/users/fsetti/ic_flashgg/CMSSW_10_2_13/src/flashggFinalFit/files_systs/06Apr2022_fullData//ws_signal_2017/output_VBFH_M125_13TeV_pythia8_VBFH.root'
p144
aS'/home/users/fsetti/ic_flashgg/CMSSW_10_2_13/src/flashggFinalFit/files_systs/06Apr2022_fullData//ws_signal_2017/output_VH_M125_13TeV_pythia8_VH.root'
p145
aS'/home/users/fsetti/ic_flashgg/CMSSW_10_2_13/src/flashggFinalFit/files_systs/06Apr2022_fullData//ws_signal_2017/output_ggH_M125_13TeV_pythia8_ggH.root'
p146
aS'/home/users/fsetti/ic_flashgg/CMSSW_10_2_13/src/flashggFinalFit/files_systs/06Apr2022_fullData//ws_signal_2017/output_ttH_M125_13TeV_pythia8_ttH.root'
p147
aS'/home/users/fsetti/ic_flashgg/CMSSW_10_2_13/src/flashggFinalFit/files_systs/06Apr2022_fullData//ws_signal_2018/output_HHggTauTau_M125_13TeV_pythia8_HHggTauTau.root'
p148
aS'/home/users/fsetti/ic_flashgg/CMSSW_10_2_13/src/flashggFinalFit/files_systs/06Apr2022_fullData//ws_signal_2018/output_HHggWWdileptonic_M125_13TeV_pythia8_HHggWWdileptonic.root'
p149
aS'/home/users/fsetti/ic_flashgg/CMSSW_10_2_13/src/flashggFinalFit/files_systs/06Apr2022_fullData//ws_signal_2018/output_HHggWWsemileptonic_M125_13TeV_pythia8_HHggWWsemileptonic.root'
p150
aS'/home/users/fsetti/ic_flashgg/CMSSW_10_2_13/src/flashggFinalFit/files_systs/06Apr2022_fullData//ws_signal_2018/output_VBFH_M125_13TeV_pythia8_VBFH.root'
p151
aS'/home/users/fsetti/ic_flashgg/CMSSW_10_2_13/src/flashggFinalFit/files_systs/06Apr2022_fullData//ws_signal_2018/output_VH_M125_13TeV_pythia8_VH.root'
p152
aS'/home/users/fsetti/ic_flashgg/CMSSW_10_2_13/src/flashggFinalFit/files_systs/06Apr2022_fullData//ws_signal_2018/output_ggH_M125_13TeV_pythia8_ggH.root'
p153
aS'/home/users/fsetti/ic_flashgg/CMSSW_10_2_13/src/flashggFinalFit/files_systs/06Apr2022_fullData//ws_signal_2018/output_ttH_M125_13TeV_pythia8_ttH.root'
p154
ag132
ag132
aS'HHggTauTau_125_13TeV_SR1'
p155
aS'HHggWWdileptonic_125_13TeV_SR1'
p156
aS'HHggWWsemileptonic_125_13TeV_SR1'
p157
aS'VBFH_125_13TeV_SR1'
p158
aS'VH_125_13TeV_SR1'
p159
aS'ggH_125_13TeV_SR1'
p160
aS'ttH_125_13TeV_SR1'
p161
aS'HHggTauTau_125_13TeV_SR1'
p162
aS'HHggWWdileptonic_125_13TeV_SR1'
p163
aS'HHggWWsemileptonic_125_13TeV_SR1'
p164
aS'VBFH_125_13TeV_SR1'
p165
aS'VH_125_13TeV_SR1'
p166
aS'ggH_125_13TeV_SR1'
p167
aS'ttH_125_13TeV_SR1'
p168
aS'HHggTauTau_125_13TeV_SR1'
p169
aS'HHggWWdileptonic_125_13TeV_SR1'
p170
aS'HHggWWsemileptonic_125_13TeV_SR1'
p171
aS'VBFH_125_13TeV_SR1'
p172
aS'VH_125_13TeV_SR1'
p173
aS'ggH_125_13TeV_SR1'
p174
aS'ttH_125_13TeV_SR1'
p175
ag132
ag132
aS'./Models/signal/CMS-HGG_sigfit_packaged_SR1.root'
p176
aS'./Models/signal/CMS-HGG_sigfit_packaged_SR1.root'
p177
aS'./Models/signal/CMS-HGG_sigfit_packaged_SR1.root'
p178
aS'./Models/signal/CMS-HGG_sigfit_packaged_SR1.root'
p179
aS'./Models/signal/CMS-HGG_sigfit_packaged_SR1.root'
p180
aS'./Models/signal/CMS-HGG_sigfit_packaged_SR1.root'
p181
aS'./Models/signal/CMS-HGG_sigfit_packaged_SR1.root'
p182
aS'./Models/signal/CMS-HGG_sigfit_packaged_SR1.root'
p183
aS'./Models/signal/CMS-HGG_sigfit_packaged_SR1.root'
p184
aS'./Models/signal/CMS-HGG_sigfit_packaged_SR1.root'
p185
aS'./Models/signal/CMS-HGG_sigfit_packaged_SR1.root'
p186
aS'./Models/signal/CMS-HGG_sigfit_packaged_SR1.root'
p187
aS'./Models/signal/CMS-HGG_sigfit_packaged_SR1.root'
p188
aS'./Models/signal/CMS-HGG_sigfit_packaged_SR1.root'
p189
aS'./Models/signal/CMS-HGG_sigfit_packaged_SR1.root'
p190
aS'./Models/signal/CMS-HGG_sigfit_packaged_SR1.root'
p191
aS'./Models/signal/CMS-HGG_sigfit_packaged_SR1.root'
p192
aS'./Models/signal/CMS-HGG_sigfit_packaged_SR1.root'
p193
aS'./Models/signal/CMS-HGG_sigfit_packaged_SR1.root'
p194
aS'./Models/signal/CMS-HGG_sigfit_packaged_SR1.root'
p195
aS'./Models/signal/CMS-HGG_sigfit_packaged_SR1.root'
p196
aS'./Models/background/CMS-HGG_multipdf_SR1.root'
p197
ag197
aS'wsig_13TeV:hggpdfsmrel_HHggTauTau_2016_SR1_13TeV'
p198
aS'wsig_13TeV:hggpdfsmrel_HHggWWdileptonic_2016_SR1_13TeV'
p199
aS'wsig_13TeV:hggpdfsmrel_HHggWWsemileptonic_2016_SR1_13TeV'
p200
aS'wsig_13TeV:hggpdfsmrel_VBFH_2016_SR1_13TeV'
p201
aS'wsig_13TeV:hggpdfsmrel_VH_2016_SR1_13TeV'
p202
aS'wsig_13TeV:hggpdfsmrel_ggH_2016_SR1_13TeV'
p203
aS'wsig_13TeV:hggpdfsmrel_ttH_2016_SR1_13TeV'
p204
aS'wsig_13TeV:hggpdfsmrel_HHggTauTau_2017_SR1_13TeV'
p205
aS'wsig_13TeV:hggpdfsmrel_HHggWWdileptonic_2017_SR1_13TeV'
p206
aS'wsig_13TeV:hggpdfsmrel_HHggWWsemileptonic_2017_SR1_13TeV'
p207
aS'wsig_13TeV:hggpdfsmrel_VBFH_2017_SR1_13TeV'
p208
aS'wsig_13TeV:hggpdfsmrel_VH_2017_SR1_13TeV'
p209
aS'wsig_13TeV:hggpdfsmrel_ggH_2017_SR1_13TeV'
p210
aS'wsig_13TeV:hggpdfsmrel_ttH_2017_SR1_13TeV'
p211
aS'wsig_13TeV:hggpdfsmrel_HHggTauTau_2018_SR1_13TeV'
p212
aS'wsig_13TeV:hggpdfsmrel_HHggWWdileptonic_2018_SR1_13TeV'
p213
aS'wsig_13TeV:hggpdfsmrel_HHggWWsemileptonic_2018_SR1_13TeV'
p214
aS'wsig_13TeV:hggpdfsmrel_VBFH_2018_SR1_13TeV'
p215
aS'wsig_13TeV:hggpdfsmrel_VH_2018_SR1_13TeV'
p216
aS'wsig_13TeV:hggpdfsmrel_ggH_2018_SR1_13TeV'
p217
aS'wsig_13TeV:hggpdfsmrel_ttH_2018_SR1_13TeV'
p218
aS'multipdf:CMS_hgg_SR1_13TeV_bkgshape'
p219
aS'multipdf:roohist_data_mass_SR1'
p220
aI1000
aI1000
aI1000
aI1000
aI1000
aI1000
aI1000
aI1000
aI1000
aI1000
aI1000
aI1000
aI1000
aI1000
aI1000
aI1000
aI1000
aI1000
aI1000
aI1000
aI1000
aF1.0
aI-1
aF0.044270086081376094
aF0.015272376555592345
aF0.004499506284337193
aF0.008673619058150188
aF0.25692169275359356
aF0.020775708380597984
aF0.05807235691003623
aF0.0496351355217094
aF0.017847627614385648
aF0.00894308835472074
aF0.010083174182210716
aF0.32427153855039026
aF0.000975449050788074
aF0.05457586703646481
aF0.07540148580161801
aF0.02533304233419838
aF0.007829733910820673
aF0.010119524326577188
aF0.4546704593784177
aF0.006552064268465043
aF0.09527308406460824
ag132
ag132
aF5.0688261130656266e-08
aF5.915603390765984e-09
aF7.914082682796192e-09
aF5.306334329129123e-06
aF0.00014903782085226553
aF4.5044012958528765e-05
aF2.351814608058144e-05
aF5.898266856176392e-08
aF7.2259123477332636e-09
aF1.603783987841788e-08
aF1.205689518797327e-05
aF0.00019529497598485258
aF2.3177234976108e-05
aF2.6904992657734286e-05
aF1.3223999610342723e-07
aF1.4890937362211073e-08
aF2.0673651902234695e-08
aF1.7946125914457443e-05
aF0.0004094649977407913
aF0.0002220801742808912
aF5.7124926083869405e-05
ag132
ag132
aF0.044270086081376094
aF0.015272376555592345
aF0.004499506284337193
aF0.008673619058150188
aF0.25692169275359356
aF0.020775708380597984
aF0.05807235691003623
aF0.0496351355217094
aF0.017847627614385648
aF0.00894308835472074
aF0.010083174182210716
aF0.32427153855039026
aF0.000975449050788074
aF0.05457586703646481
aF0.07540148580161801
aF0.02533304233419838
aF0.007829733910820673
aF0.010119524326577188
aF0.4546704593784177
aF0.006552064268465043
aF0.09527308406460824
ag132
ag132
aF0.04396291669937795
aF0.015165706448399605
aF0.004469637303515091
aF0.008631194708564131
aF0.25509848508166105
aF0.020604482970481175
aF0.05767923960398215
aF0.04871494720597319
aF0.017513729023816343
aF0.008781596981103812
aF0.009903594847609217
aF0.3181820141642991
aF0.0009544843466541305
aF0.05360416591475356
aF0.07410475996699593
aF0.02489327335328407
aF0.007700643437774286
aF0.009960715559731041
aF0.4467389909953215
aF0.006518154499911138
aF0.09367476903275189
ag132
ag132
aF0.04379996103152455
aF0.01510845236831699
aF0.004453986371906774
aF0.008612757537013689
aF0.25413611253938
aF0.02053059350001194
aF0.05747045273844037
aF0.048459065633118234
aF0.017419499889084058
aF0.008736995371715541
aF0.009870470252807158
aF0.3164447007826868
aF0.0009481156074321834
aF0.053323927913491706
aF0.07386769312624636
aF0.024812671825652857
aF0.00767744221246348
aF0.009934980224920101
aF0.44530399030285917
aF0.006520443677209142
aF0.09339467436950837
ag132
ag132
aF0.04416127287983171
aF0.015161680582861579
aF0.004491068176882696
aF0.00866203468721313
aF0.2566519722876953
aF0.020775708380597984
aF0.057811591762521805
aF0.049422382590607855
aF0.01763994400571341
aF0.008913389821048489
aF0.010093144358274199
aF0.32343720866163694
aF0.0009728251161164898
aF0.05415724681395175
aF0.07505323891209358
aF0.024993501699514482
aF0.007799992558025491
aF0.010119524326577188
aF0.45364252656315535
aF0.006552064268465043
aF0.09439823068906973
ag132
ag132
aF0.04391907845404488
aF0.01494913915186157
aF0.004473250131021311
aF0.008687469325189908
aF0.25578432507658494
aF0.020775708380597984
aF0.057123477228491426
aF0.04917891087530183
aF0.017420621457244254
aF0.008874742400328638
aF0.010123768420445583
aF0.3226511891193853
aF0.0010999638205639022
aF0.053637905333534845
aF0.07462568362859512
aF0.024654915414155366
aF0.007768916500332079
aF0.010119524326577188
aF0.4524577747672737
aF0.006552064268465043
aF0.0936399064610691
ag132
ag132
aF0.04424102427414408
aF0.015253609039781527
aF0.004497692534088484
aF0.008673506476719708
aF0.2567832102375131
aF0.020762139750860397
aF0.05799759410046767
aF0.04967922783627312
aF0.017878754677746144
aF0.008950111678091068
aF0.010083052726215536
aF0.32445903994465347
aF0.000975449050788074
aF0.054701729732330305
aF0.07529755360761113
aF0.02526593443073548
aF0.007822893255901244
aF0.010121502885798415
aF0.4544952635318914
aF0.006567031900063006
aF0.0951179172202312
ag132
ag132
aF0.04420805261908098
aF0.015231679035701601
aF0.004495500349869074
aF0.008673758519547551
aF0.25670551818083354
aF0.020754679994076305
aF0.057954350127006934
aF0.049643703988163757
aF0.017853888077592743
aF0.008945108115688567
aF0.01008332463706578
aF0.3243506337015393
aF0.000975449050788074
aF0.054635451096978205
aF0.07525730910538625
aF0.025239318202194033
aF0.007819877526739204
aF0.010119563834929053
aF0.4544173051042203
aF0.006552363145774053
aF0.0950333521871726
ag132
ag132
aF0.044298452373446776
aF0.015291444244886728
aF0.004501441431498539
aF0.008673547045913662
aF0.25695418325099395
aF0.020777471766605177
aF0.05807989466130586
aF0.04973922888358942
aF0.01791984190059299
aF0.008958607587960472
aF0.01008309649339636
aF0.3246349131024642
aF0.000975449050788074
aF0.05481181258245939
aF0.07540386756208228
aF0.025333615426057457
aF0.007830538640367521
aF0.010124606243037196
aF0.45467271063823184
aF0.006590508532639176
aF0.09532500167246372
ag132
ag132
aF0.04415065155502545
aF0.01519387642607343
aF0.0044917528539151685
aF0.008673717950353597
aF0.2565345520275804
aF0.020739356196508657
aF0.05787215337852372
aF0.04958373025009989
aF0.0178128365718519
aF0.00893661281385513
aF0.010083280869884954
aF0.3241748652173428
aF0.000975449050788074
aF0.05452547965636691
aF0.07515103961321493
aF0.025171689899856124
aF0.007812232777183517
aF0.010116460525290699
aF0.4542397981807197
aF0.006528886873291029
aF0.09482661310431996
ag132
ag132
aF0.043875688567083154
aF0.015131109138076651
aF0.004460682301154957
aF0.008617312835168776
aF0.25457065543173724
aF0.020659978993073605
aF0.057691711650614444
aF0.04902233445338091
aF0.01762218638645963
aF0.008837419021647175
aF0.009964380435508156
aF0.32035319840855364
aF0.0009631888548859804
aF0.05394381292266871
aF0.07464405653292173
aF0.025075263504322636
aF0.00775731681017169
aF0.010026740829103997
aF0.45034703003621757
aF0.00650888090646868
aF0.09441680480471586
ag132
ag132
aF0.0436906449206158
aF0.015066862540474528
aF0.004442063062306774
aF0.008583658274671876
aF0.25344960353389717
aF0.02057719057505468
aF0.05746561951155536
aF0.04877870238553961
aF0.017533889001623795
aF0.008794294560444236
aF0.00991685904334666
aF0.3186872060255195
aF0.0009589676717823644
aF0.053677792582435324
aF0.07431447566303621
aF0.0249644140781728
aF0.007723939554335802
aF0.009983509157880733
aF0.4483322181021743
aF0.006484047718915751
aF0.09401202111865813
ag132
ag132
aF0.044265399593634375
aF0.015272503992378525
aF0.004499269619576174
aF0.008673619058150188
aF0.2569216927535934
aF0.02077570838059798
aF0.05780456387438304
aF0.04965483731013264
aF0.017848767293267464
aF0.008942391910718888
aF0.010083174182210716
aF0.32463818568417724
aF0.000975449050788074
aF0.05440852175195544
aF0.07539096158625092
aF0.02533343057862882
aF0.007829678121491615
aF0.010754793110848307
aF0.4541744817930778
aF0.006552064268465042
aF0.0947714167122013
ag132
ag132
aF0.044281134444281646
aF0.015275960418552394
aF0.004495539225046093
aF0.008673619058150188
aF0.25622884067039847
aF0.02077570838059798
aF0.05781553233584421
aF0.04962728068363211
aF0.017847779049527075
aF0.008939868519281939
aF0.010083174182210716
aF0.3238605079936095
aF0.000975449050788074
aF0.05442068342888973
aF0.075405538030652
aF0.025336447148318706
aF0.007836340017867394
aF0.010119524326577188
aF0.45516787483738447
aF0.006552064268465042
aF0.09552377601499172
ag132
ag132
aF0.04423673786797353
aF0.01526121291407238
aF0.00448197476347101
aF0.008673619058150188
aF0.25628059824327304
aF0.02077570838059798
aF0.05777774447616086
aF0.049603311282340676
aF0.017838245829848467
aF0.00892179336224057
aF0.010083174182210716
aF0.32427153855039065
aF0.000975449050788074
aF0.05440352159045718
aF0.07531522271436833
aF0.025306034156861532
aF0.007798039401600113
aF0.010119524326577188
aF0.454115948913744
aF0.006552064268465042
aF0.09402311039801704
ag132
ag132
aF0.044311809867693334
aF0.015286185380280827
aF0.004522193382321283
aF0.008673619058150188
aF0.25697428596436656
aF0.02077570838059798
aF0.05821626751336069
aF0.0496877668563397
aF0.017862140072158382
aF0.00894658967010297
aF0.010083174182210716
aF0.3238959570051037
aF0.000975449050788074
aF0.054093770831461475
aF0.07552038747774913
aF0.025360556256038294
aF0.007847195344688638
aF0.010754793110848307
aF0.45513338088366095
aF0.006552064268465042
aF0.0946334719478376
ag132
ag132
aF0.044255517686589654
aF0.015269739214385068
aF0.004484298094224228
aF0.009387885775821078
aF0.2568130456229796
aF0.02077570838059798
aF0.058925909395986686
aF0.049659452192753945
aF0.017854614074810024
aF0.008952064398758112
aF0.010891122146835484
aF0.32424910489049086
aF0.000975449050788074
aF0.05428544931116509
aF0.07544677762719433
aF0.02534608440891554
aF0.007827078470200838
aF0.009071824481312243
aF0.4602867587143176
aF0.006552064268465042
aF0.09531494534261396
ag132
ag132
aF0.04427954909969107
aF0.01526875059616074
aF0.004509710271167223
aF0.010098276494173603
aF0.2561359647448679
aF0.02077570838059798
aF0.05978243936001293
aF0.04959051862110124
aF0.01784849054841378
aF0.008934505003365954
aF0.01125099100194742
aF0.3239809869434512
aF0.0006129912070834062
aF0.054951626765563186
aF0.07540131664709308
aF0.025325043621965037
aF0.007811055463130428
aF0.010080881333556299
aF0.4567132808336323
aF0.0007429156482104795
aF0.09641417948811097
ag132
ag132
aF0.04413977230993441
aF0.01527127284931926
aF0.004460544127299166
aF0.00877881177058402
aF0.2580231690137116
aF0.02077570838059798
aF0.05837936873313915
aF0.04958593678790021
aF0.017859829719740348
aF0.008885292088400304
aF0.009758272614152066
aF0.3202869490173411
aF0.000975449050788074
aF0.05448250153428094
aF0.07524741659558258
aF0.025333472893056624
aF0.007733190231550031
aF0.010672017100534148
aF0.45259567546855983
aF0.006552064268465042
aF0.0959227706770436
ag132
ag132
aF0.04439025565068408
aF0.015266833588807593
aF0.00454767575682437
aF0.009131921179554183
aF0.2594905989628281
aF0.02445485229022066
aF0.05904600845636939
aF0.04971911104406517
aF0.017842870936605124
aF0.009020334617274868
aF0.010705742796060987
aF0.3249970808392564
aF0.0050543885492482475
aF0.05436811722614617
aF0.0755437513380968
aF0.0253345130395849
aF0.007922931768760839
aF0.010080881333556299
aF0.46220755279911807
aF0.006552064268465042
aF0.0939463103502114
ag132
ag132
aF0.04439897772217865
aF0.015290355434025658
aF0.00452541901134755
aF0.007364107766043306
aF0.25365020438814556
aF0.02807951670436883
aF0.05929574561770074
aF0.049708824984505025
aF0.01785361587201263
aF0.009005140250700105
aF0.00871234548648771
aF0.32334330904730946
aF0.007956381647860276
aF0.052584958236678116
aF0.07557906083656588
aF0.025369987873973186
aF0.007920211120764716
aF0.009260859337523249
aF0.4605684317508866
aF0.0007429156482104795
aF0.09556422281221148
ag132
ag132
aF0.04413856940321973
aF0.015268590953889242
aF0.0045023114170991045
aF0.009348629939696127
aF0.2558743635619092
aF0.02065125127363182
aF0.058128397078078035
aF0.049603519254985025
aF0.01784235912347742
aF0.008894772610978412
aF0.010402927474563931
aF0.32217126830829435
aF0.000975449050788074
aF0.05439499452325055
aF0.07528106198706351
aF0.025324019881107412
aF0.007760366273400944
aF0.01092836828831958
aF0.45332305682010937
aF0.006552064268465042
aF0.09221992421082985
ag132
ag132
aF0.044269332948440876
aF0.01527366655387189
aF0.004499506284337187
aF0.008673619058150188
aF0.25743166930845157
aF0.02077570838059798
aF0.058072356910036205
aF0.049635135521709485
aF0.017848601511866402
aF0.00894308835472076
aF0.010083174182210716
aF0.32427153855039065
aF0.000975449050788074
aF0.05457586703646485
aF0.07540010547317753
aF0.025333479609241136
aF0.007829733910820688
aF0.010119524326577188
aF0.4541533090052534
aF0.006552064268465042
aF0.09527308406460813
ag132
ag132
aF0.04427310231719508
aF0.015271610901401934
aF0.004499506284337187
aF0.008673619058150188
aF0.2569216927535934
aF0.02077570838059798
aF0.058072356910036205
aF0.04963435984310347
aF0.017846544117496747
aF0.00894308835472076
aF0.010083174182210716
aF0.32427153855039065
aF0.000975449050788074
aF0.05474265984606052
aF0.07539997316379887
aF0.02533534865079797
aF0.007829733910820688
aF0.010119524326577188
aF0.45417089102430996
aF0.006552064268465042
aF0.09549385881538622
ag132
ag132
aF0.04429638005499376
aF0.015280325796300051
aF0.0045047455100432855
aF0.008673619058150188
aF0.2563119315965459
aF0.02077570838059798
aF0.05780028079282487
aF0.04967781021420757
aF0.017856830478930868
aF0.008945365522217126
aF0.010083174182210716
aF0.3240851655039396
aF0.000975449050788074
aF0.05474923388577453
aF0.07541769285632748
aF0.025337043000272032
aF0.007836473282763757
aF0.010119524326577188
aF0.45573387678412697
aF0.006552064268465042
aF0.09527308406460813
ag132
ag132
aF0.04422073173158525
aF0.015257317498493957
aF0.00449693416403907
aF0.008673619058150188
aF0.25497754964922
aF0.02077570838059798
aF0.05777832734080717
aF0.04955155397123978
aF0.017833925789666853
aF0.008929836626636508
aF0.010083174182210716
aF0.32466610607116725
aF0.000975449050788074
aF0.05468174655075808
aF0.07536158403018187
aF0.0253143814306954
aF0.007815989928357801
aF0.010119524326577188
aF0.4546908425778699
aF0.006552064268465042
aF0.09524401266110746
ag132
ag132
atp221
ba(lp222
g15
(g16
(dp223
g18
g19
(g20
(I0
tp224
g22
tp225
Rp226
(I1
(I38
tp227
g29
I00
(lp228
g33
ag34
ag35
ag36
ag37
ag38
ag39
ag40
ag41
ag42
ag43
ag44
ag45
ag46
ag47
ag48
ag49
ag50
ag51
ag52
ag53
ag54
ag55
ag56
ag57
ag58
ag59
ag60
ag61
ag62
ag63
ag64
ag65
ag66
ag67
ag68
ag69
ag70
atp229
bsg72
Nstp230
Rp231
a(dp232
S'0.14.1'
p233
(dp234
S'axes'
p235
g14
sS'blocks'
p236
(lp237
(dp238
S'mgr_locs'
p239
c__builtin__
slice
p240
(I0
I38
I1
tp241
Rp242
sS'values'
p243
g93
sasstp244
bsb.