ccopy_reg
_reconstructor
p0
(cpandas.core.frame
DataFrame
p1
c__builtin__
object
p2
Ntp3
Rp4
(dp5
S'_metadata'
p6
(lp7
sS'_typ'
p8
S'dataframe'
p9
sS'_data'
p10
g0
(cpandas.core.internals
BlockManager
p11
g2
Ntp12
Rp13
((lp14
cpandas.core.indexes.base
_new_Index
p15
(cpandas.core.indexes.base
Index
p16
(dp17
S'data'
p18
cnumpy.core.multiarray
_reconstruct
p19
(cnumpy
ndarray
p20
(I0
tp21
S'b'
p22
tp23
Rp24
(I1
(I56
tp25
cnumpy
dtype
p26
(S'O8'
p27
I0
I1
tp28
Rp29
(I3
S'|'
p30
NNNI-1
I-1
I63
tp31
bI00
(lp32
S'year'
p33
aS'type'
p34
aS'procOriginal'
p35
aS'proc'
p36
aS'proc_s0'
p37
aS'cat'
p38
aS'inputWSFile'
p39
aS'nominalDataName'
p40
aS'modelWSFile'
p41
aS'model'
p42
aS'rate'
p43
aS'nominal_yield'
p44
aS'sumw2'
p45
aS'nominal_yield_COWCorr'
p46
aS'weight_electron_veto_sf_Diphoton_Photon_up_yield'
p47
aS'weight_electron_veto_sf_Diphoton_Photon_down_yield'
p48
aS'weight_electron_id_sf_SelectedElectron_up_yield'
p49
aS'weight_electron_id_sf_SelectedElectron_down_yield'
p50
aS'weight_muon_id_sfSTAT_SelectedMuon_up_yield'
p51
aS'weight_muon_id_sfSTAT_SelectedMuon_down_yield'
p52
aS'weight_muon_id_sfSYS_SelectedMuon_up_yield'
p53
aS'weight_muon_id_sfSYS_SelectedMuon_down_yield'
p54
aS'weight_muon_iso_sfSTAT_SelectedMuon_up_yield'
p55
aS'weight_muon_iso_sfSTAT_SelectedMuon_down_yield'
p56
aS'weight_muon_iso_sfSYS_SelectedMuon_up_yield'
p57
aS'weight_muon_iso_sfSYS_SelectedMuon_down_yield'
p58
aS'weight_trigger_sf_up_yield'
p59
aS'weight_trigger_sf_down_yield'
p60
aS'JER_up_yield'
p61
aS'JER_down_yield'
p62
aS'JES_up_yield'
p63
aS'JES_down_yield'
p64
aS'MET_JER_up_yield'
p65
aS'MET_JER_down_yield'
p66
aS'MET_JES_up_yield'
p67
aS'MET_JES_down_yield'
p68
aS'MET_Unclustered_up_yield'
p69
aS'MET_Unclustered_down_yield'
p70
aS'Muon_pt_up_yield'
p71
aS'Muon_pt_down_yield'
p72
aS'Tau_pt_up_yield'
p73
aS'Tau_pt_down_yield'
p74
aS'weight_btag_deepjet_sf_SelectedJet_jes_up_yield'
p75
aS'weight_btag_deepjet_sf_SelectedJet_jes_down_yield'
p76
aS'weight_btag_deepjet_sf_SelectedJet_lfstats1_up_yield'
p77
aS'weight_btag_deepjet_sf_SelectedJet_lfstats1_down_yield'
p78
aS'weight_btag_deepjet_sf_SelectedJet_lfstats2_up_yield'
p79
aS'weight_btag_deepjet_sf_SelectedJet_lfstats2_down_yield'
p80
aS'weight_btag_deepjet_sf_SelectedJet_hfstats1_up_yield'
p81
aS'weight_btag_deepjet_sf_SelectedJet_hfstats1_down_yield'
p82
aS'weight_btag_deepjet_sf_SelectedJet_hfstats2_up_yield'
p83
aS'weight_btag_deepjet_sf_SelectedJet_hfstats2_down_yield'
p84
aS'weight_btag_deepjet_sf_SelectedJet_cferr1_up_yield'
p85
aS'weight_btag_deepjet_sf_SelectedJet_cferr1_down_yield'
p86
aS'weight_btag_deepjet_sf_SelectedJet_cferr2_up_yield'
p87
aS'weight_btag_deepjet_sf_SelectedJet_cferr2_down_yield'
p88
atp89
bsS'name'
p90
Nstp91
Rp92
ag15
(cpandas.core.indexes.numeric
Int64Index
p93
(dp94
g18
g19
(g20
(I0
tp95
g22
tp96
Rp97
(I1
(I56
tp98
g26
(S'i8'
p99
I0
I1
tp100
Rp101
(I3
S'<'
p102
NNNI-1
I-1
I0
tp103
bI00
S'\x00\x00\x00\x00\x00\x00\x00\x00\x01\x00\x00\x00\x00\x00\x00\x00\x02\x00\x00\x00\x00\x00\x00\x00\x03\x00\x00\x00\x00\x00\x00\x00\x04\x00\x00\x00\x00\x00\x00\x00\x05\x00\x00\x00\x00\x00\x00\x00\x06\x00\x00\x00\x00\x00\x00\x00\x07\x00\x00\x00\x00\x00\x00\x00\x08\x00\x00\x00\x00\x00\x00\x00\t\x00\x00\x00\x00\x00\x00\x00\n\x00\x00\x00\x00\x00\x00\x00\x0b\x00\x00\x00\x00\x00\x00\x00\x0c\x00\x00\x00\x00\x00\x00\x00\r\x00\x00\x00\x00\x00\x00\x00\x0e\x00\x00\x00\x00\x00\x00\x00\x0f\x00\x00\x00\x00\x00\x00\x00\x10\x00\x00\x00\x00\x00\x00\x00\x11\x00\x00\x00\x00\x00\x00\x00\x12\x00\x00\x00\x00\x00\x00\x00\x13\x00\x00\x00\x00\x00\x00\x00\x14\x00\x00\x00\x00\x00\x00\x00\x15\x00\x00\x00\x00\x00\x00\x00\x16\x00\x00\x00\x00\x00\x00\x00\x17\x00\x00\x00\x00\x00\x00\x00\x18\x00\x00\x00\x00\x00\x00\x00\x19\x00\x00\x00\x00\x00\x00\x00\x1a\x00\x00\x00\x00\x00\x00\x00\x1b\x00\x00\x00\x00\x00\x00\x00\x1c\x00\x00\x00\x00\x00\x00\x00\x1d\x00\x00\x00\x00\x00\x00\x00\x1e\x00\x00\x00\x00\x00\x00\x00\x1f\x00\x00\x00\x00\x00\x00\x00 \x00\x00\x00\x00\x00\x00\x00!\x00\x00\x00\x00\x00\x00\x00"\x00\x00\x00\x00\x00\x00\x00#\x00\x00\x00\x00\x00\x00\x00$\x00\x00\x00\x00\x00\x00\x00%\x00\x00\x00\x00\x00\x00\x00&\x00\x00\x00\x00\x00\x00\x00\'\x00\x00\x00\x00\x00\x00\x00(\x00\x00\x00\x00\x00\x00\x00)\x00\x00\x00\x00\x00\x00\x00*\x00\x00\x00\x00\x00\x00\x00+\x00\x00\x00\x00\x00\x00\x00,\x00\x00\x00\x00\x00\x00\x00-\x00\x00\x00\x00\x00\x00\x00.\x00\x00\x00\x00\x00\x00\x00/\x00\x00\x00\x00\x00\x00\x000\x00\x00\x00\x00\x00\x00\x001\x00\x00\x00\x00\x00\x00\x002\x00\x00\x00\x00\x00\x00\x003\x00\x00\x00\x00\x00\x00\x004\x00\x00\x00\x00\x00\x00\x005\x00\x00\x00\x00\x00\x00\x006\x00\x00\x00\x00\x00\x00\x007\x00\x00\x00\x00\x00\x00\x00'
p104
tp105
bsg90
Nstp106
Rp107
a(lp108
g19
(g20
(I0
tp109
g22
tp110
Rp111
(I1
(I56
I56
tp112
g29
I00
(lp113
S'2016'
p114
ag114
ag114
ag114
ag114
ag114
ag114
ag114
ag114
ag114
ag114
ag114
ag114
ag114
ag114
ag114
ag114
ag114
aS'2017'
p115
ag115
ag115
ag115
ag115
ag115
ag115
ag115
ag115
ag115
ag115
ag115
ag115
ag115
ag115
ag115
ag115
ag115
aS'2018'
p116
ag116
ag116
ag116
ag116
ag116
ag116
ag116
ag116
ag116
ag116
ag116
ag116
ag116
ag116
ag116
ag116
ag116
aS'merged'
p117
ag117
aS'sig'
p118
ag118
ag118
ag118
ag118
ag118
ag118
ag118
ag118
ag118
ag118
ag118
ag118
ag118
ag118
ag118
ag118
ag118
ag118
ag118
ag118
ag118
ag118
ag118
ag118
ag118
ag118
ag118
ag118
ag118
ag118
ag118
ag118
ag118
ag118
ag118
ag118
ag118
ag118
ag118
ag118
ag118
ag118
ag118
ag118
ag118
ag118
ag118
ag118
ag118
ag118
ag118
ag118
ag118
aS'bkg'
p119
ag18
aS'VBFH'
p120
aS'VH'
p121
aS'ggH'
p122
aS'ttH'
p123
aS'ttHHheft1'
p124
aS'ttHHheft10'
p125
aS'ttHHheft11'
p126
aS'ttHHheft12'
p127
aS'ttHHheft13'
p128
aS'ttHHheft2'
p129
aS'ttHHheft3'
p130
aS'ttHHheft4'
p131
aS'ttHHheft5'
p132
aS'ttHHheft6'
p133
aS'ttHHheft7'
p134
aS'ttHHheft8'
p135
aS'ttHHheft9'
p136
aS'ttHHheftSM'
p137
ag120
ag121
ag122
ag123
ag124
ag125
ag126
ag127
ag128
ag129
ag130
ag131
ag132
ag133
ag134
ag135
ag136
ag137
ag120
ag121
ag122
ag123
ag124
ag125
ag126
ag127
ag128
ag129
ag130
ag131
ag132
ag133
ag134
ag135
ag136
ag137
aS'bkg_mass'
p138
aS'data_obs'
p139
aS'VBFH_2016_hgg'
p140
aS'VH_2016_hgg'
p141
aS'ggH_2016_hgg'
p142
aS'ttH_2016_hgg'
p143
aS'ttHHheft1_2016_hgg'
p144
aS'ttHHheft10_2016_hgg'
p145
aS'ttHHheft11_2016_hgg'
p146
aS'ttHHheft12_2016_hgg'
p147
aS'ttHHheft13_2016_hgg'
p148
aS'ttHHheft2_2016_hgg'
p149
aS'ttHHheft3_2016_hgg'
p150
aS'ttHHheft4_2016_hgg'
p151
aS'ttHHheft5_2016_hgg'
p152
aS'ttHHheft6_2016_hgg'
p153
aS'ttHHheft7_2016_hgg'
p154
aS'ttHHheft8_2016_hgg'
p155
aS'ttHHheft9_2016_hgg'
p156
aS'ttHHheftSM_2016_hgg'
p157
aS'VBFH_2017_hgg'
p158
aS'VH_2017_hgg'
p159
aS'ggH_2017_hgg'
p160
aS'ttH_2017_hgg'
p161
aS'ttHHheft1_2017_hgg'
p162
aS'ttHHheft10_2017_hgg'
p163
aS'ttHHheft11_2017_hgg'
p164
aS'ttHHheft12_2017_hgg'
p165
aS'ttHHheft13_2017_hgg'
p166
aS'ttHHheft2_2017_hgg'
p167
aS'ttHHheft3_2017_hgg'
p168
aS'ttHHheft4_2017_hgg'
p169
aS'ttHHheft5_2017_hgg'
p170
aS'ttHHheft6_2017_hgg'
p171
aS'ttHHheft7_2017_hgg'
p172
aS'ttHHheft8_2017_hgg'
p173
aS'ttHHheft9_2017_hgg'
p174
aS'ttHHheftSM_2017_hgg'
p175
aS'VBFH_2018_hgg'
p176
aS'VH_2018_hgg'
p177
aS'ggH_2018_hgg'
p178
aS'ttH_2018_hgg'
p179
aS'ttHHheft1_2018_hgg'
p180
aS'ttHHheft10_2018_hgg'
p181
aS'ttHHheft11_2018_hgg'
p182
aS'ttHHheft12_2018_hgg'
p183
aS'ttHHheft13_2018_hgg'
p184
aS'ttHHheft2_2018_hgg'
p185
aS'ttHHheft3_2018_hgg'
p186
aS'ttHHheft4_2018_hgg'
p187
aS'ttHHheft5_2018_hgg'
p188
aS'ttHHheft6_2018_hgg'
p189
aS'ttHHheft7_2018_hgg'
p190
aS'ttHHheft8_2018_hgg'
p191
aS'ttHHheft9_2018_hgg'
p192
aS'ttHHheftSM_2018_hgg'
p193
ag138
ag139
ag120
ag121
ag122
ag123
ag124
ag125
ag126
ag127
ag128
ag129
ag130
ag131
ag132
ag133
ag134
ag135
ag136
ag137
ag120
ag121
ag122
ag123
ag124
ag125
ag126
ag127
ag128
ag129
ag130
ag131
ag132
ag133
ag134
ag135
ag136
ag137
ag120
ag121
ag122
ag123
ag124
ag125
ag126
ag127
ag128
ag129
ag130
ag131
ag132
ag133
ag134
ag135
ag136
ag137
aS'-'
p194
ag194
aS'SR2'
p195
ag195
ag195
ag195
ag195
ag195
ag195
ag195
ag195
ag195
ag195
ag195
ag195
ag195
ag195
ag195
ag195
ag195
ag195
ag195
ag195
ag195
ag195
ag195
ag195
ag195
ag195
ag195
ag195
ag195
ag195
ag195
ag195
ag195
ag195
ag195
ag195
ag195
ag195
ag195
ag195
ag195
ag195
ag195
ag195
ag195
ag195
ag195
ag195
ag195
ag195
ag195
ag195
ag195
ag195
ag195
aS'/home/users/azecchin/Analysis/FinalFit/CMSSW_10_2_13/src/flashggFinalFit/files_systs/HEFT_BRggbb/ws_signal_2016/output_VBFH_M125_13TeV_pythia8_VBFH.root'
p196
aS'/home/users/azecchin/Analysis/FinalFit/CMSSW_10_2_13/src/flashggFinalFit/files_systs/HEFT_BRggbb/ws_signal_2016/output_VH_M125_13TeV_pythia8_VH.root'
p197
aS'/home/users/azecchin/Analysis/FinalFit/CMSSW_10_2_13/src/flashggFinalFit/files_systs/HEFT_BRggbb/ws_signal_2016/output_ggH_M125_13TeV_pythia8_ggH.root'
p198
aS'/home/users/azecchin/Analysis/FinalFit/CMSSW_10_2_13/src/flashggFinalFit/files_systs/HEFT_BRggbb/ws_signal_2016/output_ttH_M125_13TeV_pythia8_ttH.root'
p199
aS'/home/users/azecchin/Analysis/FinalFit/CMSSW_10_2_13/src/flashggFinalFit/files_systs/HEFT_BRggbb/ws_signal_2016/output_ttHHheft1_M125_13TeV_pythia8_ttHHheft1.root'
p200
aS'/home/users/azecchin/Analysis/FinalFit/CMSSW_10_2_13/src/flashggFinalFit/files_systs/HEFT_BRggbb/ws_signal_2016/output_ttHHheft10_M125_13TeV_pythia8_ttHHheft10.root'
p201
aS'/home/users/azecchin/Analysis/FinalFit/CMSSW_10_2_13/src/flashggFinalFit/files_systs/HEFT_BRggbb/ws_signal_2016/output_ttHHheft11_M125_13TeV_pythia8_ttHHheft11.root'
p202
aS'/home/users/azecchin/Analysis/FinalFit/CMSSW_10_2_13/src/flashggFinalFit/files_systs/HEFT_BRggbb/ws_signal_2016/output_ttHHheft12_M125_13TeV_pythia8_ttHHheft12.root'
p203
aS'/home/users/azecchin/Analysis/FinalFit/CMSSW_10_2_13/src/flashggFinalFit/files_systs/HEFT_BRggbb/ws_signal_2016/output_ttHHheft13_M125_13TeV_pythia8_ttHHheft13.root'
p204
aS'/home/users/azecchin/Analysis/FinalFit/CMSSW_10_2_13/src/flashggFinalFit/files_systs/HEFT_BRggbb/ws_signal_2016/output_ttHHheft2_M125_13TeV_pythia8_ttHHheft2.root'
p205
aS'/home/users/azecchin/Analysis/FinalFit/CMSSW_10_2_13/src/flashggFinalFit/files_systs/HEFT_BRggbb/ws_signal_2016/output_ttHHheft3_M125_13TeV_pythia8_ttHHheft3.root'
p206
aS'/home/users/azecchin/Analysis/FinalFit/CMSSW_10_2_13/src/flashggFinalFit/files_systs/HEFT_BRggbb/ws_signal_2016/output_ttHHheft4_M125_13TeV_pythia8_ttHHheft4.root'
p207
aS'/home/users/azecchin/Analysis/FinalFit/CMSSW_10_2_13/src/flashggFinalFit/files_systs/HEFT_BRggbb/ws_signal_2016/output_ttHHheft5_M125_13TeV_pythia8_ttHHheft5.root'
p208
aS'/home/users/azecchin/Analysis/FinalFit/CMSSW_10_2_13/src/flashggFinalFit/files_systs/HEFT_BRggbb/ws_signal_2016/output_ttHHheft6_M125_13TeV_pythia8_ttHHheft6.root'
p209
aS'/home/users/azecchin/Analysis/FinalFit/CMSSW_10_2_13/src/flashggFinalFit/files_systs/HEFT_BRggbb/ws_signal_2016/output_ttHHheft7_M125_13TeV_pythia8_ttHHheft7.root'
p210
aS'/home/users/azecchin/Analysis/FinalFit/CMSSW_10_2_13/src/flashggFinalFit/files_systs/HEFT_BRggbb/ws_signal_2016/output_ttHHheft8_M125_13TeV_pythia8_ttHHheft8.root'
p211
aS'/home/users/azecchin/Analysis/FinalFit/CMSSW_10_2_13/src/flashggFinalFit/files_systs/HEFT_BRggbb/ws_signal_2016/output_ttHHheft9_M125_13TeV_pythia8_ttHHheft9.root'
p212
aS'/home/users/azecchin/Analysis/FinalFit/CMSSW_10_2_13/src/flashggFinalFit/files_systs/HEFT_BRggbb/ws_signal_2016/output_ttHHheftSM_M125_13TeV_pythia8_ttHHheftSM.root'
p213
aS'/home/users/azecchin/Analysis/FinalFit/CMSSW_10_2_13/src/flashggFinalFit/files_systs/HEFT_BRggbb/ws_signal_2017/output_VBFH_M125_13TeV_pythia8_VBFH.root'
p214
aS'/home/users/azecchin/Analysis/FinalFit/CMSSW_10_2_13/src/flashggFinalFit/files_systs/HEFT_BRggbb/ws_signal_2017/output_VH_M125_13TeV_pythia8_VH.root'
p215
aS'/home/users/azecchin/Analysis/FinalFit/CMSSW_10_2_13/src/flashggFinalFit/files_systs/HEFT_BRggbb/ws_signal_2017/output_ggH_M125_13TeV_pythia8_ggH.root'
p216
aS'/home/users/azecchin/Analysis/FinalFit/CMSSW_10_2_13/src/flashggFinalFit/files_systs/HEFT_BRggbb/ws_signal_2017/output_ttH_M125_13TeV_pythia8_ttH.root'
p217
aS'/home/users/azecchin/Analysis/FinalFit/CMSSW_10_2_13/src/flashggFinalFit/files_systs/HEFT_BRggbb/ws_signal_2017/output_ttHHheft1_M125_13TeV_pythia8_ttHHheft1.root'
p218
aS'/home/users/azecchin/Analysis/FinalFit/CMSSW_10_2_13/src/flashggFinalFit/files_systs/HEFT_BRggbb/ws_signal_2017/output_ttHHheft10_M125_13TeV_pythia8_ttHHheft10.root'
p219
aS'/home/users/azecchin/Analysis/FinalFit/CMSSW_10_2_13/src/flashggFinalFit/files_systs/HEFT_BRggbb/ws_signal_2017/output_ttHHheft11_M125_13TeV_pythia8_ttHHheft11.root'
p220
aS'/home/users/azecchin/Analysis/FinalFit/CMSSW_10_2_13/src/flashggFinalFit/files_systs/HEFT_BRggbb/ws_signal_2017/output_ttHHheft12_M125_13TeV_pythia8_ttHHheft12.root'
p221
aS'/home/users/azecchin/Analysis/FinalFit/CMSSW_10_2_13/src/flashggFinalFit/files_systs/HEFT_BRggbb/ws_signal_2017/output_ttHHheft13_M125_13TeV_pythia8_ttHHheft13.root'
p222
aS'/home/users/azecchin/Analysis/FinalFit/CMSSW_10_2_13/src/flashggFinalFit/files_systs/HEFT_BRggbb/ws_signal_2017/output_ttHHheft2_M125_13TeV_pythia8_ttHHheft2.root'
p223
aS'/home/users/azecchin/Analysis/FinalFit/CMSSW_10_2_13/src/flashggFinalFit/files_systs/HEFT_BRggbb/ws_signal_2017/output_ttHHheft3_M125_13TeV_pythia8_ttHHheft3.root'
p224
aS'/home/users/azecchin/Analysis/FinalFit/CMSSW_10_2_13/src/flashggFinalFit/files_systs/HEFT_BRggbb/ws_signal_2017/output_ttHHheft4_M125_13TeV_pythia8_ttHHheft4.root'
p225
aS'/home/users/azecchin/Analysis/FinalFit/CMSSW_10_2_13/src/flashggFinalFit/files_systs/HEFT_BRggbb/ws_signal_2017/output_ttHHheft5_M125_13TeV_pythia8_ttHHheft5.root'
p226
aS'/home/users/azecchin/Analysis/FinalFit/CMSSW_10_2_13/src/flashggFinalFit/files_systs/HEFT_BRggbb/ws_signal_2017/output_ttHHheft6_M125_13TeV_pythia8_ttHHheft6.root'
p227
aS'/home/users/azecchin/Analysis/FinalFit/CMSSW_10_2_13/src/flashggFinalFit/files_systs/HEFT_BRggbb/ws_signal_2017/output_ttHHheft7_M125_13TeV_pythia8_ttHHheft7.root'
p228
aS'/home/users/azecchin/Analysis/FinalFit/CMSSW_10_2_13/src/flashggFinalFit/files_systs/HEFT_BRggbb/ws_signal_2017/output_ttHHheft8_M125_13TeV_pythia8_ttHHheft8.root'
p229
aS'/home/users/azecchin/Analysis/FinalFit/CMSSW_10_2_13/src/flashggFinalFit/files_systs/HEFT_BRggbb/ws_signal_2017/output_ttHHheft9_M125_13TeV_pythia8_ttHHheft9.root'
p230
aS'/home/users/azecchin/Analysis/FinalFit/CMSSW_10_2_13/src/flashggFinalFit/files_systs/HEFT_BRggbb/ws_signal_2017/output_ttHHheftSM_M125_13TeV_pythia8_ttHHheftSM.root'
p231
aS'/home/users/azecchin/Analysis/FinalFit/CMSSW_10_2_13/src/flashggFinalFit/files_systs/HEFT_BRggbb/ws_signal_2018/output_VBFH_M125_13TeV_pythia8_VBFH.root'
p232
aS'/home/users/azecchin/Analysis/FinalFit/CMSSW_10_2_13/src/flashggFinalFit/files_systs/HEFT_BRggbb/ws_signal_2018/output_VH_M125_13TeV_pythia8_VH.root'
p233
aS'/home/users/azecchin/Analysis/FinalFit/CMSSW_10_2_13/src/flashggFinalFit/files_systs/HEFT_BRggbb/ws_signal_2018/output_ggH_M125_13TeV_pythia8_ggH.root'
p234
aS'/home/users/azecchin/Analysis/FinalFit/CMSSW_10_2_13/src/flashggFinalFit/files_systs/HEFT_BRggbb/ws_signal_2018/output_ttH_M125_13TeV_pythia8_ttH.root'
p235
aS'/home/users/azecchin/Analysis/FinalFit/CMSSW_10_2_13/src/flashggFinalFit/files_systs/HEFT_BRggbb/ws_signal_2018/output_ttHHheft1_M125_13TeV_pythia8_ttHHheft1.root'
p236
aS'/home/users/azecchin/Analysis/FinalFit/CMSSW_10_2_13/src/flashggFinalFit/files_systs/HEFT_BRggbb/ws_signal_2018/output_ttHHheft10_M125_13TeV_pythia8_ttHHheft10.root'
p237
aS'/home/users/azecchin/Analysis/FinalFit/CMSSW_10_2_13/src/flashggFinalFit/files_systs/HEFT_BRggbb/ws_signal_2018/output_ttHHheft11_M125_13TeV_pythia8_ttHHheft11.root'
p238
aS'/home/users/azecchin/Analysis/FinalFit/CMSSW_10_2_13/src/flashggFinalFit/files_systs/HEFT_BRggbb/ws_signal_2018/output_ttHHheft12_M125_13TeV_pythia8_ttHHheft12.root'
p239
aS'/home/users/azecchin/Analysis/FinalFit/CMSSW_10_2_13/src/flashggFinalFit/files_systs/HEFT_BRggbb/ws_signal_2018/output_ttHHheft13_M125_13TeV_pythia8_ttHHheft13.root'
p240
aS'/home/users/azecchin/Analysis/FinalFit/CMSSW_10_2_13/src/flashggFinalFit/files_systs/HEFT_BRggbb/ws_signal_2018/output_ttHHheft2_M125_13TeV_pythia8_ttHHheft2.root'
p241
aS'/home/users/azecchin/Analysis/FinalFit/CMSSW_10_2_13/src/flashggFinalFit/files_systs/HEFT_BRggbb/ws_signal_2018/output_ttHHheft3_M125_13TeV_pythia8_ttHHheft3.root'
p242
aS'/home/users/azecchin/Analysis/FinalFit/CMSSW_10_2_13/src/flashggFinalFit/files_systs/HEFT_BRggbb/ws_signal_2018/output_ttHHheft4_M125_13TeV_pythia8_ttHHheft4.root'
p243
aS'/home/users/azecchin/Analysis/FinalFit/CMSSW_10_2_13/src/flashggFinalFit/files_systs/HEFT_BRggbb/ws_signal_2018/output_ttHHheft5_M125_13TeV_pythia8_ttHHheft5.root'
p244
aS'/home/users/azecchin/Analysis/FinalFit/CMSSW_10_2_13/src/flashggFinalFit/files_systs/HEFT_BRggbb/ws_signal_2018/output_ttHHheft6_M125_13TeV_pythia8_ttHHheft6.root'
p245
aS'/home/users/azecchin/Analysis/FinalFit/CMSSW_10_2_13/src/flashggFinalFit/files_systs/HEFT_BRggbb/ws_signal_2018/output_ttHHheft7_M125_13TeV_pythia8_ttHHheft7.root'
p246
aS'/home/users/azecchin/Analysis/FinalFit/CMSSW_10_2_13/src/flashggFinalFit/files_systs/HEFT_BRggbb/ws_signal_2018/output_ttHHheft8_M125_13TeV_pythia8_ttHHheft8.root'
p247
aS'/home/users/azecchin/Analysis/FinalFit/CMSSW_10_2_13/src/flashggFinalFit/files_systs/HEFT_BRggbb/ws_signal_2018/output_ttHHheft9_M125_13TeV_pythia8_ttHHheft9.root'
p248
aS'/home/users/azecchin/Analysis/FinalFit/CMSSW_10_2_13/src/flashggFinalFit/files_systs/HEFT_BRggbb/ws_signal_2018/output_ttHHheftSM_M125_13TeV_pythia8_ttHHheftSM.root'
p249
ag194
ag194
aS'VBFH_125_13TeV_SR2'
p250
aS'VH_125_13TeV_SR2'
p251
aS'ggH_125_13TeV_SR2'
p252
aS'ttH_125_13TeV_SR2'
p253
aS'ttHHheft1_125_13TeV_SR2'
p254
aS'ttHHheft10_125_13TeV_SR2'
p255
aS'ttHHheft11_125_13TeV_SR2'
p256
aS'ttHHheft12_125_13TeV_SR2'
p257
aS'ttHHheft13_125_13TeV_SR2'
p258
aS'ttHHheft2_125_13TeV_SR2'
p259
aS'ttHHheft3_125_13TeV_SR2'
p260
aS'ttHHheft4_125_13TeV_SR2'
p261
aS'ttHHheft5_125_13TeV_SR2'
p262
aS'ttHHheft6_125_13TeV_SR2'
p263
aS'ttHHheft7_125_13TeV_SR2'
p264
aS'ttHHheft8_125_13TeV_SR2'
p265
aS'ttHHheft9_125_13TeV_SR2'
p266
aS'ttHHheftSM_125_13TeV_SR2'
p267
aS'VBFH_125_13TeV_SR2'
p268
aS'VH_125_13TeV_SR2'
p269
aS'ggH_125_13TeV_SR2'
p270
aS'ttH_125_13TeV_SR2'
p271
aS'ttHHheft1_125_13TeV_SR2'
p272
aS'ttHHheft10_125_13TeV_SR2'
p273
aS'ttHHheft11_125_13TeV_SR2'
p274
aS'ttHHheft12_125_13TeV_SR2'
p275
aS'ttHHheft13_125_13TeV_SR2'
p276
aS'ttHHheft2_125_13TeV_SR2'
p277
aS'ttHHheft3_125_13TeV_SR2'
p278
aS'ttHHheft4_125_13TeV_SR2'
p279
aS'ttHHheft5_125_13TeV_SR2'
p280
aS'ttHHheft6_125_13TeV_SR2'
p281
aS'ttHHheft7_125_13TeV_SR2'
p282
aS'ttHHheft8_125_13TeV_SR2'
p283
aS'ttHHheft9_125_13TeV_SR2'
p284
aS'ttHHheftSM_125_13TeV_SR2'
p285
aS'VBFH_125_13TeV_SR2'
p286
aS'VH_125_13TeV_SR2'
p287
aS'ggH_125_13TeV_SR2'
p288
aS'ttH_125_13TeV_SR2'
p289
aS'ttHHheft1_125_13TeV_SR2'
p290
aS'ttHHheft10_125_13TeV_SR2'
p291
aS'ttHHheft11_125_13TeV_SR2'
p292
aS'ttHHheft12_125_13TeV_SR2'
p293
aS'ttHHheft13_125_13TeV_SR2'
p294
aS'ttHHheft2_125_13TeV_SR2'
p295
aS'ttHHheft3_125_13TeV_SR2'
p296
aS'ttHHheft4_125_13TeV_SR2'
p297
aS'ttHHheft5_125_13TeV_SR2'
p298
aS'ttHHheft6_125_13TeV_SR2'
p299
aS'ttHHheft7_125_13TeV_SR2'
p300
aS'ttHHheft8_125_13TeV_SR2'
p301
aS'ttHHheft9_125_13TeV_SR2'
p302
aS'ttHHheftSM_125_13TeV_SR2'
p303
ag194
ag194
aS'./Models/signal/CMS-HGG_sigfit_packaged_SR2.root'
p304
aS'./Models/signal/CMS-HGG_sigfit_packaged_SR2.root'
p305
aS'./Models/signal/CMS-HGG_sigfit_packaged_SR2.root'
p306
aS'./Models/signal/CMS-HGG_sigfit_packaged_SR2.root'
p307
aS'./Models/signal/CMS-HGG_sigfit_packaged_SR2.root'
p308
aS'./Models/signal/CMS-HGG_sigfit_packaged_SR2.root'
p309
aS'./Models/signal/CMS-HGG_sigfit_packaged_SR2.root'
p310
aS'./Models/signal/CMS-HGG_sigfit_packaged_SR2.root'
p311
aS'./Models/signal/CMS-HGG_sigfit_packaged_SR2.root'
p312
aS'./Models/signal/CMS-HGG_sigfit_packaged_SR2.root'
p313
aS'./Models/signal/CMS-HGG_sigfit_packaged_SR2.root'
p314
aS'./Models/signal/CMS-HGG_sigfit_packaged_SR2.root'
p315
aS'./Models/signal/CMS-HGG_sigfit_packaged_SR2.root'
p316
aS'./Models/signal/CMS-HGG_sigfit_packaged_SR2.root'
p317
aS'./Models/signal/CMS-HGG_sigfit_packaged_SR2.root'
p318
aS'./Models/signal/CMS-HGG_sigfit_packaged_SR2.root'
p319
aS'./Models/signal/CMS-HGG_sigfit_packaged_SR2.root'
p320
aS'./Models/signal/CMS-HGG_sigfit_packaged_SR2.root'
p321
aS'./Models/signal/CMS-HGG_sigfit_packaged_SR2.root'
p322
aS'./Models/signal/CMS-HGG_sigfit_packaged_SR2.root'
p323
aS'./Models/signal/CMS-HGG_sigfit_packaged_SR2.root'
p324
aS'./Models/signal/CMS-HGG_sigfit_packaged_SR2.root'
p325
aS'./Models/signal/CMS-HGG_sigfit_packaged_SR2.root'
p326
aS'./Models/signal/CMS-HGG_sigfit_packaged_SR2.root'
p327
aS'./Models/signal/CMS-HGG_sigfit_packaged_SR2.root'
p328
aS'./Models/signal/CMS-HGG_sigfit_packaged_SR2.root'
p329
aS'./Models/signal/CMS-HGG_sigfit_packaged_SR2.root'
p330
aS'./Models/signal/CMS-HGG_sigfit_packaged_SR2.root'
p331
aS'./Models/signal/CMS-HGG_sigfit_packaged_SR2.root'
p332
aS'./Models/signal/CMS-HGG_sigfit_packaged_SR2.root'
p333
aS'./Models/signal/CMS-HGG_sigfit_packaged_SR2.root'
p334
aS'./Models/signal/CMS-HGG_sigfit_packaged_SR2.root'
p335
aS'./Models/signal/CMS-HGG_sigfit_packaged_SR2.root'
p336
aS'./Models/signal/CMS-HGG_sigfit_packaged_SR2.root'
p337
aS'./Models/signal/CMS-HGG_sigfit_packaged_SR2.root'
p338
aS'./Models/signal/CMS-HGG_sigfit_packaged_SR2.root'
p339
aS'./Models/signal/CMS-HGG_sigfit_packaged_SR2.root'
p340
aS'./Models/signal/CMS-HGG_sigfit_packaged_SR2.root'
p341
aS'./Models/signal/CMS-HGG_sigfit_packaged_SR2.root'
p342
aS'./Models/signal/CMS-HGG_sigfit_packaged_SR2.root'
p343
aS'./Models/signal/CMS-HGG_sigfit_packaged_SR2.root'
p344
aS'./Models/signal/CMS-HGG_sigfit_packaged_SR2.root'
p345
aS'./Models/signal/CMS-HGG_sigfit_packaged_SR2.root'
p346
aS'./Models/signal/CMS-HGG_sigfit_packaged_SR2.root'
p347
aS'./Models/signal/CMS-HGG_sigfit_packaged_SR2.root'
p348
aS'./Models/signal/CMS-HGG_sigfit_packaged_SR2.root'
p349
aS'./Models/signal/CMS-HGG_sigfit_packaged_SR2.root'
p350
aS'./Models/signal/CMS-HGG_sigfit_packaged_SR2.root'
p351
aS'./Models/signal/CMS-HGG_sigfit_packaged_SR2.root'
p352
aS'./Models/signal/CMS-HGG_sigfit_packaged_SR2.root'
p353
aS'./Models/signal/CMS-HGG_sigfit_packaged_SR2.root'
p354
aS'./Models/signal/CMS-HGG_sigfit_packaged_SR2.root'
p355
aS'./Models/signal/CMS-HGG_sigfit_packaged_SR2.root'
p356
aS'./Models/signal/CMS-HGG_sigfit_packaged_SR2.root'
p357
aS'./Models/background/CMS-HGG_multipdf_SR2.root'
p358
ag358
aS'wsig_13TeV:hggpdfsmrel_VBFH_2016_SR2_13TeV'
p359
aS'wsig_13TeV:hggpdfsmrel_VH_2016_SR2_13TeV'
p360
aS'wsig_13TeV:hggpdfsmrel_ggH_2016_SR2_13TeV'
p361
aS'wsig_13TeV:hggpdfsmrel_ttH_2016_SR2_13TeV'
p362
aS'wsig_13TeV:hggpdfsmrel_ttHHheft1_2016_SR2_13TeV'
p363
aS'wsig_13TeV:hggpdfsmrel_ttHHheft10_2016_SR2_13TeV'
p364
aS'wsig_13TeV:hggpdfsmrel_ttHHheft11_2016_SR2_13TeV'
p365
aS'wsig_13TeV:hggpdfsmrel_ttHHheft12_2016_SR2_13TeV'
p366
aS'wsig_13TeV:hggpdfsmrel_ttHHheft13_2016_SR2_13TeV'
p367
aS'wsig_13TeV:hggpdfsmrel_ttHHheft2_2016_SR2_13TeV'
p368
aS'wsig_13TeV:hggpdfsmrel_ttHHheft3_2016_SR2_13TeV'
p369
aS'wsig_13TeV:hggpdfsmrel_ttHHheft4_2016_SR2_13TeV'
p370
aS'wsig_13TeV:hggpdfsmrel_ttHHheft5_2016_SR2_13TeV'
p371
aS'wsig_13TeV:hggpdfsmrel_ttHHheft6_2016_SR2_13TeV'
p372
aS'wsig_13TeV:hggpdfsmrel_ttHHheft7_2016_SR2_13TeV'
p373
aS'wsig_13TeV:hggpdfsmrel_ttHHheft8_2016_SR2_13TeV'
p374
aS'wsig_13TeV:hggpdfsmrel_ttHHheft9_2016_SR2_13TeV'
p375
aS'wsig_13TeV:hggpdfsmrel_ttHHheftSM_2016_SR2_13TeV'
p376
aS'wsig_13TeV:hggpdfsmrel_VBFH_2017_SR2_13TeV'
p377
aS'wsig_13TeV:hggpdfsmrel_VH_2017_SR2_13TeV'
p378
aS'wsig_13TeV:hggpdfsmrel_ggH_2017_SR2_13TeV'
p379
aS'wsig_13TeV:hggpdfsmrel_ttH_2017_SR2_13TeV'
p380
aS'wsig_13TeV:hggpdfsmrel_ttHHheft1_2017_SR2_13TeV'
p381
aS'wsig_13TeV:hggpdfsmrel_ttHHheft10_2017_SR2_13TeV'
p382
aS'wsig_13TeV:hggpdfsmrel_ttHHheft11_2017_SR2_13TeV'
p383
aS'wsig_13TeV:hggpdfsmrel_ttHHheft12_2017_SR2_13TeV'
p384
aS'wsig_13TeV:hggpdfsmrel_ttHHheft13_2017_SR2_13TeV'
p385
aS'wsig_13TeV:hggpdfsmrel_ttHHheft2_2017_SR2_13TeV'
p386
aS'wsig_13TeV:hggpdfsmrel_ttHHheft3_2017_SR2_13TeV'
p387
aS'wsig_13TeV:hggpdfsmrel_ttHHheft4_2017_SR2_13TeV'
p388
aS'wsig_13TeV:hggpdfsmrel_ttHHheft5_2017_SR2_13TeV'
p389
aS'wsig_13TeV:hggpdfsmrel_ttHHheft6_2017_SR2_13TeV'
p390
aS'wsig_13TeV:hggpdfsmrel_ttHHheft7_2017_SR2_13TeV'
p391
aS'wsig_13TeV:hggpdfsmrel_ttHHheft8_2017_SR2_13TeV'
p392
aS'wsig_13TeV:hggpdfsmrel_ttHHheft9_2017_SR2_13TeV'
p393
aS'wsig_13TeV:hggpdfsmrel_ttHHheftSM_2017_SR2_13TeV'
p394
aS'wsig_13TeV:hggpdfsmrel_VBFH_2018_SR2_13TeV'
p395
aS'wsig_13TeV:hggpdfsmrel_VH_2018_SR2_13TeV'
p396
aS'wsig_13TeV:hggpdfsmrel_ggH_2018_SR2_13TeV'
p397
aS'wsig_13TeV:hggpdfsmrel_ttH_2018_SR2_13TeV'
p398
aS'wsig_13TeV:hggpdfsmrel_ttHHheft1_2018_SR2_13TeV'
p399
aS'wsig_13TeV:hggpdfsmrel_ttHHheft10_2018_SR2_13TeV'
p400
aS'wsig_13TeV:hggpdfsmrel_ttHHheft11_2018_SR2_13TeV'
p401
aS'wsig_13TeV:hggpdfsmrel_ttHHheft12_2018_SR2_13TeV'
p402
aS'wsig_13TeV:hggpdfsmrel_ttHHheft13_2018_SR2_13TeV'
p403
aS'wsig_13TeV:hggpdfsmrel_ttHHheft2_2018_SR2_13TeV'
p404
aS'wsig_13TeV:hggpdfsmrel_ttHHheft3_2018_SR2_13TeV'
p405
aS'wsig_13TeV:hggpdfsmrel_ttHHheft4_2018_SR2_13TeV'
p406
aS'wsig_13TeV:hggpdfsmrel_ttHHheft5_2018_SR2_13TeV'
p407
aS'wsig_13TeV:hggpdfsmrel_ttHHheft6_2018_SR2_13TeV'
p408
aS'wsig_13TeV:hggpdfsmrel_ttHHheft7_2018_SR2_13TeV'
p409
aS'wsig_13TeV:hggpdfsmrel_ttHHheft8_2018_SR2_13TeV'
p410
aS'wsig_13TeV:hggpdfsmrel_ttHHheft9_2018_SR2_13TeV'
p411
aS'wsig_13TeV:hggpdfsmrel_ttHHheftSM_2018_SR2_13TeV'
p412
aS'multipdf:CMS_hgg_SR2_13TeV_bkgshape'
p413
aS'multipdf:roohist_data_mass_SR2'
p414
aI1000
aI1000
aI1000
aI1000
aI1000
aI1000
aI1000
aI1000
aI1000
aI1000
aI1000
aI1000
aI1000
aI1000
aI1000
aI1000
aI1000
aI1000
aI1000
aI1000
aI1000
aI1000
aI1000
aI1000
aI1000
aI1000
aI1000
aI1000
aI1000
aI1000
aI1000
aI1000
aI1000
aI1000
aI1000
aI1000
aI1000
aI1000
aI1000
aI1000
aI1000
aI1000
aI1000
aI1000
aI1000
aI1000
aI1000
aI1000
aI1000
aI1000
aI1000
aI1000
aI1000
aI1000
aF1.0
aI-1
aF-0.002467890830797769
aF0.0034516105571098395
aF0.07244981673389943
aF1.2782525466738506
aF0.010558855374677134
aF0.0035623841068675695
aF0.004499922190921172
aF0.0025627973824237397
aF0.009866493137096389
aF0.028367381675829976
aF0.05582589813529998
aF0.09547618980200402
aF0.14646611867681653
aF0.20440397102378863
aF0.26430961110224976
aF0.04007130867215788
aF0.20062633905706587
aF0.004116983350481195
aF-0.004253675213021644
aF0.04915443058805972
aF0.05258845036027543
aF2.582817999764793
aF0.02395399375186239
aF0.00800141844855591
aF0.010095518925399637
aF0.005785637500283288
aF0.022316560025497797
aF0.06422357600343653
aF0.12702068347016326
aF0.21769332486187298
aF0.33487451515041927
aF0.46336495803257854
aF0.604766241709031
aF0.09026698569971657
aF0.45257144919445697
aF0.00827021006605005
aF0.0015513965091674385
aF0.03093330957566773
aF0.15221193808078282
aF3.9258134258247206
aF0.03477029907707627
aF0.01162490358565212
aF0.014665761079070975
aF0.008375294742232222
aF0.03242915961698619
aF0.09323239415490188
aF0.18429334638134712
aF0.3162256874926289
aF0.4849376871292641
aF0.6741179755540317
aF0.8786014255673303
aF0.13040403691315133
aF0.6561226015648982
aF0.0123367355304198
ag194
ag194
aF4.337382398428731e-06
aF3.645482715237747e-05
aF0.000848273473501733
aF0.0015420278622499237
aF3.390528947727038e-08
aF4.225108358143961e-09
aF6.789134736482827e-09
aF2.0977093305764736e-09
aF2.7627165358773708e-08
aF2.514371984585681e-07
aF9.850952195102326e-07
aF2.8416389570177896e-06
aF7.543852907766786e-06
aF1.4359538267137215e-05
aF2.245736003620415e-05
aF5.004783672538129e-07
aF1.1958630602166857e-05
aF9.484015826340435e-10
aF1.540206691478632e-05
aF0.00010355499620948031
aF0.0020275512677023176
aF0.003303611570830041
aF1.782422513590158e-07
aF2.1598724029297144e-08
aF3.4043478303314176e-08
aF1.0894991672034115e-08
aF1.444872257811952e-07
aF1.3122643512250843e-06
aF5.195814447119241e-06
aF1.5092444038686267e-05
aF4.079701153925706e-05
aF7.652240090835211e-05
aF0.00012243955267767097
aF2.580007356642908e-06
aF6.258987795413701e-05
aF1.6523858846242823e-09
aF1.1117542902151927e-05
aF0.0001928487757557789
aF0.003345722129719177
aF0.007105271358705394
aF3.8049253228608735e-07
aF4.5639248871880866e-08
aF7.270090572688659e-08
aF2.281359899513424e-08
aF3.0594383249674907e-07
aF2.808060861777066e-06
aF1.1015774007706537e-05
aF3.2068435045790407e-05
aF8.63729467245453e-05
aF0.00016196184890439818
aF0.00026310122040932324
aF5.387402959605835e-06
aF0.00013145781517141585
aF3.807124110125352e-09
ag194
ag194
aF-0.002467890830797769
aF0.0034516105571098395
aF0.07244981673389943
aF1.2782525466738506
aF0.010558855374677134
aF0.0035623841068675695
aF0.004499922190921172
aF0.0025627973824237397
aF0.009866493137096389
aF0.028367381675829976
aF0.05582589813529998
aF0.09547618980200402
aF0.14646611867681653
aF0.20440397102378863
aF0.26430961110224976
aF0.04007130867215788
aF0.20062633905706587
aF0.004116983350481195
aF-0.004253675213021644
aF0.04915443058805972
aF0.05258845036027543
aF2.582817999764793
aF0.02395399375186239
aF0.00800141844855591
aF0.010095518925399637
aF0.005785637500283288
aF0.022316560025497797
aF0.06422357600343653
aF0.12702068347016326
aF0.21769332486187298
aF0.33487451515041927
aF0.46336495803257854
aF0.604766241709031
aF0.09026698569971657
aF0.45257144919445697
aF0.00827021006605005
aF0.0015513965091674385
aF0.03093330957566773
aF0.15221193808078282
aF3.9258134258247206
aF0.03477029907707627
aF0.01162490358565212
aF0.014665761079070975
aF0.008375294742232222
aF0.03242915961698619
aF0.09323239415490188
aF0.18429334638134712
aF0.3162256874926289
aF0.4849376871292641
aF0.6741179755540317
aF0.8786014255673303
aF0.13040403691315133
aF0.6561226015648982
aF0.0123367355304198
ag194
ag194
aF-0.002467890830797769
aF0.0034516105571098395
aF0.07244981673389943
aF1.2782525466738506
aF0.010558855374677134
aF0.0035623841068675695
aF0.004499922190921172
aF0.0025627973824237397
aF0.009866493137096389
aF0.028367381675829976
aF0.05582589813529998
aF0.09547618980200402
aF0.14646611867681653
aF0.20440397102378863
aF0.26430961110224976
aF0.04007130867215788
aF0.20062633905706587
aF0.004116983350481195
aF-0.004253675213021644
aF0.04915443058805972
aF0.05258845036027543
aF2.582817999764793
aF0.02395399375186239
aF0.00800141844855591
aF0.010095518925399637
aF0.005785637500283288
aF0.022316560025497797
aF0.06422357600343653
aF0.12702068347016326
aF0.21769332486187298
aF0.33487451515041927
aF0.46336495803257854
aF0.604766241709031
aF0.09026698569971657
aF0.45257144919445697
aF0.00827021006605005
aF0.0015513965091674385
aF0.03093330957566773
aF0.15221193808078282
aF3.9258134258247206
aF0.03477029907707627
aF0.01162490358565212
aF0.014665761079070975
aF0.008375294742232222
aF0.03242915961698619
aF0.09323239415490188
aF0.18429334638134712
aF0.3162256874926289
aF0.4849376871292641
aF0.6741179755540317
aF0.8786014255673303
aF0.13040403691315133
aF0.6561226015648982
aF0.0123367355304198
ag194
ag194
aF-0.0024633327827884377
aF0.0034349423696997264
aF0.07233325255514175
aF1.276042574571787
aF0.010539208162531842
aF0.0035554902335792424
aF0.004491111039973072
aF0.0025577188077301484
aF0.009847793873890018
aF0.0283165050682807
aF0.05572542782419073
aF0.09529952589275162
aF0.1461967059629746
aF0.2040339505904153
aF0.2638300640876593
aF0.03999305704335194
aF0.20022624932168112
aF0.004108785752329303
aF-0.0042445226602145295
aF0.04904726518442527
aF0.05245052524527561
aF2.5761589321848546
aF0.023889447919477832
aF0.007979187876602158
aF0.010066971556181635
aF0.005769012120775323
aF0.02225549379828888
aF0.0640567797899501
aF0.12669385691697604
aF0.21710646808658268
aF0.33398094921586086
aF0.4621584889776531
aF0.6031822571462631
aF0.0900126793245552
aF0.4512508346884707
aF0.008246928642047268
aF0.0015498348449221298
aF0.030895513704655597
aF0.15210145326603391
aF3.9197861933045157
aF0.03471327390957062
aF0.0116051308958624
aF0.014640515165543587
aF0.00836062479951772
aF0.032375168571434215
aF0.09308589741552206
aF0.1840038590575814
aF0.31571260270567264
aF0.48415938563068284
aF0.6730501972435124
aF0.8772053363208805
aF0.13017971881411838
aF0.6549653696184308
aF0.012315327635684721
ag194
ag194
aF-0.002467890830797769
aF0.0034516105571098395
aF0.07244981673389943
aF1.2782525466738506
aF0.010558855374677134
aF0.0035623841068675695
aF0.004499922190921172
aF0.0025627973824237397
aF0.009866493137096389
aF0.028367381675829976
aF0.05582589813529998
aF0.09547618980200402
aF0.14646611867681653
aF0.20440397102378863
aF0.26430961110224976
aF0.04007130867215788
aF0.20062633905706587
aF0.004116983350481195
aF-0.004253675213021644
aF0.04915443058805972
aF0.05258845036027543
aF2.582817999764793
aF0.02395399375186239
aF0.00800141844855591
aF0.010095518925399637
aF0.005785637500283288
aF0.022316560025497797
aF0.06422357600343653
aF0.12702068347016326
aF0.21769332486187298
aF0.33487451515041927
aF0.46336495803257854
aF0.604766241709031
aF0.09026698569971657
aF0.45257144919445697
aF0.00827021006605005
aF0.0015513965091674385
aF0.03093330957566773
aF0.15221193808078282
aF3.9258134258247206
aF0.03477029907707627
aF0.01162490358565212
aF0.014665761079070975
aF0.008375294742232222
aF0.03242915961698619
aF0.09323239415490188
aF0.18429334638134712
aF0.3162256874926289
aF0.4849376871292641
aF0.6741179755540317
aF0.8786014255673303
aF0.13040403691315133
aF0.6561226015648982
aF0.0123367355304198
ag194
ag194
aF-0.002467890830797769
aF0.0034141324735717615
aF0.07244981673389943
aF1.275287188702602
aF0.010541534543779473
aF0.0035562445268253816
aF0.004491982867453205
aF0.0025582468505598124
aF0.009851560925564927
aF0.02832434244441518
aF0.05572238723623525
aF0.0953244648617339
aF0.14623498371881377
aF0.20409203757667777
aF0.26391322104853965
aF0.040003888266864546
aF0.20025941809149894
aF0.004110182777267764
aF-0.004253675213021644
aF0.049113446551128884
aF0.05258845036027543
aF2.5776872482115496
aF0.023917515026274865
aF0.007989677263839992
aF0.010078976660849236
aF0.005775883430745943
aF0.022285817461831177
aF0.06413262748009971
aF0.12679890466519772
aF0.21737420770895002
aF0.3344087357177204
aF0.46273210893873684
aF0.6039493593376233
aF0.09013288902016725
aF0.4518519721142313
aF0.008255219115451164
aF0.0015513965091674385
aF0.03084407799532029
aF0.15221193808078282
aF3.9175335726650844
aF0.03471619393387482
aF0.011605983416371366
aF0.014641062225801428
aF0.008361016851029803
aF0.03238315031177366
aF0.09309531942900279
aF0.18396848825889844
aF0.31575457741339535
aF0.4842214148232145
aF0.6732009198403347
aF0.8773616123496872
aF0.1301973220901358
aF0.6549840900570061
aF0.012316187425994449
ag194
ag194
aF-0.002467890830797769
aF0.0034516105571098395
aF0.07244981673389943
aF1.2782525466738506
aF0.010558855374677134
aF0.0035623841068675695
aF0.004499922190921172
aF0.0025627973824237397
aF0.009866493137096389
aF0.028367381675829976
aF0.05582589813529998
aF0.09547618980200402
aF0.14646611867681653
aF0.20440397102378863
aF0.26430961110224976
aF0.04007130867215788
aF0.20062633905706587
aF0.004116983350481195
aF-0.004253675213021644
aF0.04915443058805972
aF0.05258845036027543
aF2.582817999764793
aF0.02395399375186239
aF0.00800141844855591
aF0.010095518925399637
aF0.005785637500283288
aF0.022316560025497797
aF0.06422357600343653
aF0.12702068347016326
aF0.21769332486187298
aF0.33487451515041927
aF0.46336495803257854
aF0.604766241709031
aF0.09026698569971657
aF0.45257144919445697
aF0.00827021006605005
aF0.0015513965091674385
aF0.03093330957566773
aF0.15221193808078282
aF3.9258134258247206
aF0.03477029907707627
aF0.01162490358565212
aF0.014665761079070975
aF0.008375294742232222
aF0.03242915961698619
aF0.09323239415490188
aF0.18429334638134712
aF0.3162256874926289
aF0.4849376871292641
aF0.6741179755540317
aF0.8786014255673303
aF0.13040403691315133
aF0.6561226015648982
aF0.0123367355304198
ag194
ag194
aF-0.002467890830797769
aF0.0034511962911000353
aF0.07244981673389943
aF1.2782008418911128
aF0.01055864948216499
aF0.0035623221508305778
aF0.004499837613837559
aF0.0025627504790618925
aF0.00986632258965969
aF0.02836690413805819
aF0.0558249148907221
aF0.09547472485642039
aF0.1464637776631573
aF0.20440056396764744
aF0.2643053871640021
aF0.04007061874768648
aF0.20062292018974504
aF0.004116841402942256
aF-0.004253675213021644
aF0.049153041258000366
aF0.05258845036027543
aF2.582739090289239
aF0.02395351330052312
aF0.008001275672147055
aF0.010095320195621864
aF0.00578553054971659
aF0.022316162203786166
aF0.06422245039824925
aF0.12701843281877923
aF0.2176899261267105
aF0.3348690586002537
aF0.4633570831705664
aF0.6047564714660253
aF0.0902653799200644
aF0.4525634070638908
aF0.008269999589872021
aF0.0015513965091674385
aF0.030932959020807074
aF0.15221193808078282
aF3.9257101721426166
aF0.03476961070998335
aF0.011624698846271767
aF0.014665476205439086
aF0.008375139326046173
aF0.0324285877021822
aF0.09323077519980914
aF0.18429007024713256
aF0.3162207768044141
aF0.48492987011269784
aF0.6741066059366846
aF0.8785873371911651
aF0.13040172913468248
aF0.6561110940199093
aF0.012336506389996178
ag194
ag194
aF-0.002467890830797769
aF0.0034516105571098395
aF0.07244981673389943
aF1.2782525466738506
aF0.010558855374677134
aF0.0035623841068675695
aF0.004499922190921172
aF0.0025627973824237397
aF0.009866493137096389
aF0.028367381675829976
aF0.05582589813529998
aF0.09547618980200402
aF0.14646611867681653
aF0.20440397102378863
aF0.26430961110224976
aF0.04007130867215788
aF0.20062633905706587
aF0.004116983350481195
aF-0.004253675213021644
aF0.04915443058805972
aF0.05258845036027543
aF2.582817999764793
aF0.02395399375186239
aF0.00800141844855591
aF0.010095518925399637
aF0.005785637500283288
aF0.022316560025497797
aF0.06422357600343653
aF0.12702068347016326
aF0.21769332486187298
aF0.33487451515041927
aF0.46336495803257854
aF0.604766241709031
aF0.09026698569971657
aF0.45257144919445697
aF0.00827021006605005
aF0.0015513965091674385
aF0.03093330957566773
aF0.15221193808078282
aF3.9258134258247206
aF0.03477029907707627
aF0.01162490358565212
aF0.014665761079070975
aF0.008375294742232222
aF0.03242915961698619
aF0.09323239415490188
aF0.18429334638134712
aF0.3162256874926289
aF0.4849376871292641
aF0.6741179755540317
aF0.8786014255673303
aF0.13040403691315133
aF0.6561226015648982
aF0.0123367355304198
ag194
ag194
aF-0.002467890830797769
aF0.0034512148024687813
aF0.07244981673389943
aF1.278158569034032
aF0.010558335109740219
aF0.003562233824331632
aF0.00449973525102381
aF0.002562692017515449
aF0.009866072819730422
aF0.028366215579420345
aF0.055823590430102626
aF0.09547252577007809
aF0.1464596080254753
aF0.20439559954686828
aF0.264299076409036
aF0.04006974187782213
aF0.2006190343278546
aF0.004116784678193501
aF-0.004253675213021644
aF0.049152599142522055
aF0.05258845036027543
aF2.5826843406084135
aF0.023952751087278543
aF0.008001072943920051
aF0.010095079844276236
aF0.005785396085201079
aF0.02231557986967944
aF0.06422083712018878
aF0.1270153486218559
aF0.21768485140100954
aF0.33485930933585195
aF0.463345740165611
aF0.6047421503460765
aF0.0902633514084085
aF0.45255416529010306
aF0.008269871986426203
aF0.0015513965091674385
aF0.030931438993915854
aF0.15221193808078282
aF3.9255792397796165
aF0.03476853423977516
aF0.011624406888305454
aF0.01466513368057792
aF0.008374944843307018
aF0.03242774971726696
aF0.0932284426915992
aF0.1842856145262547
aF0.31621350430656137
aF0.4849159735632484
aF0.6740902257412719
aF0.8785666645957478
aF0.13039879862197826
aF0.6560978573159845
aF0.012336211281924437
ag194
ag194
aF-0.002467890830797769
aF0.0034516105571098395
aF0.07244981673389943
aF1.2782525466738506
aF0.010558855374677134
aF0.0035623841068675695
aF0.004499922190921172
aF0.0025627973824237397
aF0.009866493137096389
aF0.028367381675829976
aF0.05582589813529998
aF0.09547618980200402
aF0.14646611867681653
aF0.20440397102378863
aF0.26430961110224976
aF0.04007130867215788
aF0.20062633905706587
aF0.004116983350481195
aF-0.004253675213021644
aF0.04915443058805972
aF0.05258845036027543
aF2.582817999764793
aF0.02395399375186239
aF0.00800141844855591
aF0.010095518925399637
aF0.005785637500283288
aF0.022316560025497797
aF0.06422357600343653
aF0.12702068347016326
aF0.21769332486187298
aF0.33487451515041927
aF0.46336495803257854
aF0.604766241709031
aF0.09026698569971657
aF0.45257144919445697
aF0.00827021006605005
aF0.0015513965091674385
aF0.03093330957566773
aF0.15221193808078282
aF3.9258134258247206
aF0.03477029907707627
aF0.01162490358565212
aF0.014665761079070975
aF0.008375294742232222
aF0.03242915961698619
aF0.09323239415490188
aF0.18429334638134712
aF0.3162256874926289
aF0.4849376871292641
aF0.6741179755540317
aF0.8786014255673303
aF0.13040403691315133
aF0.6561226015648982
aF0.0123367355304198
ag194
ag194
aF-0.002467890830797769
aF0.003449579552574191
aF0.07244981673389943
aF1.2780930079453048
aF0.010558000478771963
aF0.003562133080737956
aF0.0044995501551171385
aF0.002562597775111916
aF0.009865817896853526
aF0.028365529317872198
aF0.05582187811738494
aF0.09547075071509042
aF0.14645748738305983
aF0.20439075297360765
aF0.2642928787041334
aF0.04006838714391623
aF0.200611575503719
aF0.0041165198246702105
aF-0.004253675213021644
aF0.04915098510645179
aF0.05258845036027543
aF2.582502210535005
aF0.023952007982001505
aF0.008000829753086344
aF0.010094642944429197
aF0.005785185010397261
aF0.02231498173300143
aF0.06421921109632416
aF0.12701162723517517
aF0.21768071742858705
aF0.33485455101761613
aF0.4633344082292394
aF0.6047273015296196
aF0.09026016420138072
aF0.4525365910216426
aF0.008269297614966087
aF0.0015513965091674385
aF0.03093210068790817
aF0.15221193808078282
aF3.9253743202252522
aF0.034767459013720234
aF0.011624067108214686
aF0.014664506408173277
aF0.008374632421538469
aF0.03242689183844487
aF0.09322615870906073
aF0.18428002957751966
aF0.31620741901971267
aF0.48490898011754463
aF0.6740737620496643
aF0.8785451839559931
aF0.13039428679906304
aF0.6560728707562538
aF0.01233575192291175
ag194
ag194
aF-0.002467890830797769
aF0.0034516105571098395
aF0.07244981673389943
aF1.2782525466738506
aF0.010558855374677134
aF0.0035623841068675695
aF0.004499922190921172
aF0.0025627973824237397
aF0.009866493137096389
aF0.028367381675829976
aF0.05582589813529998
aF0.09547618980200402
aF0.14646611867681653
aF0.20440397102378863
aF0.26430961110224976
aF0.04007130867215788
aF0.20062633905706587
aF0.004116983350481195
aF-0.004253675213021644
aF0.04915443058805972
aF0.05258845036027543
aF2.582817999764793
aF0.02395399375186239
aF0.00800141844855591
aF0.010095518925399637
aF0.005785637500283288
aF0.022316560025497797
aF0.06422357600343653
aF0.12702068347016326
aF0.21769332486187298
aF0.33487451515041927
aF0.46336495803257854
aF0.604766241709031
aF0.09026698569971657
aF0.45257144919445697
aF0.00827021006605005
aF0.0015513965091674385
aF0.03093330957566773
aF0.15221193808078282
aF3.9258134258247206
aF0.03477029907707627
aF0.01162490358565212
aF0.014665761079070975
aF0.008375294742232222
aF0.03242915961698619
aF0.09323239415490188
aF0.18429334638134712
aF0.3162256874926289
aF0.4849376871292641
aF0.6741179755540317
aF0.8786014255673303
aF0.13040403691315133
aF0.6561226015648982
aF0.0123367355304198
ag194
ag194
aF-0.002467890830797769
aF0.003441997571937148
aF0.07244981673389943
aF1.2774122759525863
aF0.010553994340081177
aF0.0035609028831927727
aF0.004497737638664745
aF0.0025617206063021742
aF0.009862719205415085
aF0.028357051243046504
aF0.05580391589915501
aF0.09544699113632193
aF0.14642239256988923
aF0.20432851208243732
aF0.26421024105503216
aF0.04005400584092279
aF0.2005407405779581
aF0.004115240902989043
aF-0.004253675213021644
aF0.04914753980583147
aF0.05258845036027543
aF2.5814149471219023
aF0.023942779600508984
aF0.007997930821254834
aF0.010090376783974613
aF0.005783201643010195
aF0.022307742631604486
aF0.06419913610700101
aF0.12697157557372182
aF0.21762578319212608
aF0.33477489301703683
aF0.46319003734770337
aF0.6045334830991853
aF0.09022689915321593
aF0.45236912283209596
aF0.008266154838873968
aF0.0015513965091674385
aF0.030933855861005343
aF0.15221193808078282
aF3.92315824050073
aF0.03475426958523803
aF0.011619979285569869
aF0.01465843259708599
aF0.008371711632192929
aF0.03241652230729689
aF0.09319765765021254
aF0.18422066099615095
aF0.31612810410942405
aF0.4847939228610902
aF0.6738639188220218
aF0.8782644275002118
aF0.13034676729013986
aF0.6558331628252289
aF0.012330904823047844
ag194
ag194
aF-0.002467890830797769
aF0.0034516105571098395
aF0.07244981673389943
aF1.2782525466738506
aF0.010558855374677134
aF0.0035623841068675695
aF0.004499922190921172
aF0.0025627973824237397
aF0.009866493137096389
aF0.028367381675829976
aF0.05582589813529998
aF0.09547618980200402
aF0.14646611867681653
aF0.20440397102378863
aF0.26430961110224976
aF0.04007130867215788
aF0.20062633905706587
aF0.004116983350481195
aF-0.004253675213021644
aF0.04915443058805972
aF0.05258845036027543
aF2.582817999764793
aF0.02395399375186239
aF0.00800141844855591
aF0.010095518925399637
aF0.005785637500283288
aF0.022316560025497797
aF0.06422357600343653
aF0.12702068347016326
aF0.21769332486187298
aF0.33487451515041927
aF0.46336495803257854
aF0.604766241709031
aF0.09026698569971657
aF0.45257144919445697
aF0.00827021006605005
aF0.0015513965091674385
aF0.03093330957566773
aF0.15221193808078282
aF3.9258134258247206
aF0.03477029907707627
aF0.01162490358565212
aF0.014665761079070975
aF0.008375294742232222
aF0.03242915961698619
aF0.09323239415490188
aF0.18429334638134712
aF0.3162256874926289
aF0.4849376871292641
aF0.6741179755540317
aF0.8786014255673303
aF0.13040403691315133
aF0.6561226015648982
aF0.0123367355304198
ag194
ag194
aF-0.0024627889318190772
aF0.00341873283065329
aF0.07230427762322365
aF1.2755092160272996
aF0.010536391030266249
aF0.0035548508220019934
aF0.004490112021031188
aF0.0025572606352745266
aF0.009845175287717611
aF0.02830807139494363
aF0.05570775541327594
aF0.09527271068474585
aF0.14614947833787173
aF0.20396716210823176
aF0.26374952416551845
aF0.03998567985795001
aF0.20019616161033535
aF0.004107937919954902
aF-0.004244481202012925
aF0.049047443804019146
aF0.052443934439960774
aF2.576231319384222
aF0.02389137734867944
aF0.00797975349538525
aF0.010067838106711932
aF0.005769590825764625
aF0.022258011168939554
aF0.06405991900979317
aF0.12669433495324084
aF0.2171391207855008
aF0.3339961674113458
aF0.46218718124230773
aF0.6032097318391962
aF0.09002276794490352
aF0.4513383792879224
aF0.008247674680033044
aF0.0015482633002197152
aF0.03086835005284412
aF0.15190817702756745
aF3.9170161554642178
aF0.03469296230593175
aF0.01159866727947865
aF0.014632124999103708
aF0.008355839409473475
aF0.032355872253018544
aF0.09302845324695451
aF0.18388528501992216
aF0.31552304836424455
aF0.4838296211377737
aF0.6726294516749255
aF0.876654904476989
aF0.13010865563815657
aF0.6546309214231048
aF0.012308596077780449
ag194
ag194
aF-0.0018716136590835426
aF0.00638374861951224
aF0.07244981673389943
aF1.2824324257416295
aF0.010605503930429522
aF0.003586855591322244
aF0.004508010683762214
aF0.0025662927837000883
aF0.009868528626650486
aF0.02840587124417534
aF0.05588488602592941
aF0.0952211611908404
aF0.14583711306537556
aF0.20463868690007633
aF0.26574646370042065
aF0.03995896830164138
aF0.20188380532106756
aF0.0041167746842931605
aF-0.003140457755996655
aF0.04772160504505229
aF0.03751791974728152
aF2.602016727282686
aF0.024057450912061015
aF0.008061548795863346
aF0.010113326929003564
aF0.005789312314725386
aF0.022335554481519117
aF0.06421701230425025
aF0.12710735486587926
aF0.21693118078283496
aF0.33340889679435687
aF0.4639441531302283
aF0.6078691561206963
aF0.08995008121947555
aF0.4553323890445178
aF0.008270375902119289
aF0.0030021446763311044
aF0.03294650906390587
aF0.1522119380807828
aF3.9315185566049213
aF0.03490387626428479
aF0.011707774073047184
aF0.014677160569951385
aF0.008374571063641579
aF0.03245112638911902
aF0.09324987417883653
aF0.1844130806074169
aF0.3151076319660541
aF0.48281799253609814
aF0.6752421970838024
aF0.8831924193317212
aF0.12996183349965398
aF0.660026181369869
aF0.012348343480790246
ag194
ag194
aF-0.0008909235267050319
aF0.003113973405473152
aF0.07244981673389943
aF1.2758996032373975
aF0.010527471832359213
aF0.00356055491419236
aF0.0045063986480889644
aF0.002563302925527585
aF0.009865808010119222
aF0.028292074044081676
aF0.055573285312854825
aF0.09469051959003068
aF0.14632840750736492
aF0.20313234289482357
aF0.264278785652723
aF0.04024874834917477
aF0.20078942228964727
aF0.004113276058800232
aF-0.0016163299749260246
aF0.04991532566756107
aF0.05995926747178802
aF2.600217259205054
aF0.02390989523218389
aF0.008013809341139254
aF0.010117296504934823
aF0.005792998632864506
aF0.022332032939494005
aF0.06410950916070449
aF0.12652547029258515
aF0.21603642495758374
aF0.3343385335907365
aF0.46097420800058536
aF0.6045426716035545
aF0.09071121175877123
aF0.4533576517189991
aF0.008259067315323845
aF0.0015513965091674385
aF0.02961586809014735
aF0.13749575271521566
aF3.9047036921527387
aF0.03467608919204868
aF0.011642543683369602
aF0.014700414029662547
aF0.008388001315728371
aF0.03246663003747435
aF0.09303135729329617
aF0.18350563952425367
aF0.31376966868278267
aF0.48406768586539406
aF0.6708859847375368
aF0.8781048006160828
aF0.13105113291330037
aF0.6571532792282111
aF0.012330051997994095
ag194
ag194
aF-0.0018716136590835426
aF0.0041873912299871295
aF0.07806469425108349
aF1.3313252472994148
aF0.01059511974089673
aF0.0036214170527785455
aF0.004570365649484777
aF0.002579428344721577
aF0.009913535006515692
aF0.028356750733310874
aF0.05599847569442209
aF0.09429999529354274
aF0.1457837017110391
aF0.20270812639166963
aF0.2644092291037406
aF0.04061277825059254
aF0.20255373138059588
aF0.004147174743076895
aF-0.003140457755996655
aF0.05092098108904319
aF0.03519699220876367
aF2.6896046039684656
aF0.023979062424404042
aF0.008133118485227133
aF0.010219136610993456
aF0.0058004309698516535
aF0.022357343311073787
aF0.06402904288307928
aF0.12701182824961904
aF0.2142129226973672
aF0.33281461098440734
aF0.4598738686054243
aF0.6047044257591857
aF0.09122259792192267
aF0.4563240974898969
aF0.00827937168955934
aF0.001435830781324308
aF0.03228043605371059
aF0.14028640196647305
aF4.086140042119821
aF0.03479742676852555
aF0.01179943590293653
aF0.014827325354988622
aF0.008393714788939634
aF0.03247129321888113
aF0.09297479779772412
aF0.18421329380542636
aF0.31106208834624205
aF0.4811404926255474
aF0.6696788308141158
aF0.8774536821798289
aF0.1318771192516805
aF0.6615315033288707
aF0.012396885866934498
ag194
ag194
aF-0.0008909235267050319
aF0.0037878830334370484
aF0.07257636258541283
aF1.2143795877901784
aF0.010527032844899925
aF0.003582607828299103
aF0.0044503577870763636
aF0.002563103035193835
aF0.009889797101733027
aF0.028454208241729007
aF0.0557589313950295
aF0.09502963393471547
aF0.14586708424696815
aF0.20136924027870953
aF0.26450455293432523
aF0.039865603127775616
aF0.1972570253275308
aF0.004085440529962343
aF-0.0016163299749260246
aF0.04439563240935161
aF0.046577573295671144
aF2.5599521508315837
aF0.023943332405701262
aF0.008059206931846303
aF0.010006673171549492
aF0.005805719003058638
aF0.02240957303248169
aF0.06460465139737497
aF0.1272782253167791
aF0.21683676490910034
aF0.3336943528087456
aF0.4595996773805802
aF0.6061151026083944
aF0.09002142809414963
aF0.4464999713198548
aF0.008239317348767396
aF0.0030021446763311044
aF0.03173144372910503
aF0.13288684120195368
aF3.8006066736009014
aF0.034738804213592864
aF0.01171004058112538
aF0.014530879702228354
aF0.008404957507274857
aF0.03259795208095045
aF0.09377416660603924
aF0.18458520680425766
aF0.3153903683979335
aF0.483043354271176
aF0.6676751795610186
aF0.8803165625254427
aF0.1300978368280553
aF0.64717881742546
aF0.012289362129945325
ag194
ag194
aF-0.002467890830797769
aF0.00345161055710984
aF0.07244981673389943
aF1.2738425637117305
aF0.010547778325262824
aF0.0035640662359247488
aF0.004492643972131938
aF0.0025605026787367466
aF0.00986038768382728
aF0.028406546087821047
aF0.05582043153971098
aF0.09524109969508152
aF0.14669918828628373
aF0.20386858377203748
aF0.2636932255551457
aF0.04013234457399816
aF0.2004410883860766
aF0.004114712187843354
aF-0.004253675213021644
aF0.05005403227439635
aF0.052588450360275436
aF2.584890917131103
aF0.02391579644593288
aF0.008009141960268607
aF0.010074870138651548
aF0.005780213445085143
aF0.0223075343933351
aF0.06424766553853742
aF0.12702542198583672
aF0.2171442467581324
aF0.3354757986089743
aF0.46216371531052547
aF0.6030800837140644
aF0.09033520859930808
aF0.45198061704477205
aF0.008264748902620035
aF0.0015513965091674385
aF0.028541119398092576
aF0.1522119380807828
aF3.92596616532894
aF0.03471881073732892
aF0.011637717700456431
aF0.01463973320989092
aF0.008367970807265913
aF0.03242383519605737
aF0.0933327576118095
aF0.18435166394076896
aF0.3154444306926702
aF0.4856782520077504
aF0.6722005589891523
aF0.8763977107359509
aF0.13051757188256088
aF0.655109753619545
aF0.012331368444797186
ag194
ag194
aF-0.0008909235267050319
aF0.00345161055710984
aF0.07244981673389943
aF1.2739493917916103
aF0.01055452457507679
aF0.0035740233055180154
aF0.004497206733957146
aF0.0025654985545769315
aF0.00989055155481845
aF0.028333945175312313
aF0.05576995266730299
aF0.09544427872470695
aF0.14650144954776878
aF0.20445780537603278
aF0.2643033243731173
aF0.04011724049917495
aF0.2004436568359683
aF0.0041153559611597805
aF-0.0016163299749260246
aF0.0492811019669319
aF0.05725430537259512
aF2.568612430500336
aF0.023938370310785193
aF0.008030140429246786
aF0.01009052628334982
aF0.00579288731294365
aF0.022356012558365227
aF0.06413359954931212
aF0.1268802658485017
aF0.21754233106871004
aF0.3351220960544231
aF0.4634442727096787
aF0.6043795866684419
aF0.09037917493843502
aF0.45208640080502716
aF0.008265869031512024
aF0.0015513965091674385
aF0.02803359255600159
aF0.15139148348518805
aF3.9512932183835616
aF0.0347571171172336
aF0.011666052815941467
aF0.01465742174779686
aF0.008384080862907924
aF0.03249524727410068
aF0.09312101495011849
aF0.18408211921528883
aF0.316033830246074
aF0.4852298374062501
aF0.674259792426073
aF0.8784083418971631
aF0.1305083207236481
aF0.6555591431748603
aF0.012339442342624815
ag194
ag194
aF-0.002467890830797769
aF0.00345161055710984
aF0.08112387729531376
aF1.2828935984037373
aF0.010539745853968791
aF0.0035768579814258765
aF0.004503840122559491
aF0.002566341585410886
aF0.009910087734450809
aF0.02827726596530084
aF0.0557317476125161
aF0.09502374548443593
aF0.1463901649454082
aF0.2041189080508546
aF0.26393039489780745
aF0.040154655091019786
aF0.20071278293478106
aF0.004116846424682954
aF-0.004253675213021644
aF0.0512978207442896
aF0.052588450360275436
aF2.5873258624640365
aF0.023916729701498773
aF0.008036837755408243
aF0.01011003739594692
aF0.005795129343679532
aF0.02242151686119075
aF0.06398533429330419
aF0.1267776302672849
aF0.21675235704021276
aF0.3348879366137579
aF0.4630535169298319
aF0.6038527868491096
aF0.09035065499294033
aF0.45277507169386483
aF0.008272464868076904
aF0.0015513965091674385
aF0.031156658325382905
aF0.16199053976715563
aF3.949498522332868
aF0.034732396469463
aF0.011678278346126772
aF0.014683182512269244
aF0.00838681641265787
aF0.0325725001860835
aF0.09285678705578315
aF0.1839909961698824
aF0.3148123966453284
aF0.484487885379505
aF0.6737790256025457
aF0.8773732914177735
aF0.13052829622938156
aF0.656536259095198
aF0.012342900772192
ag194
ag194
aF-0.0008909235267050319
aF0.004915493641167562
aF0.07244981673389943
aF1.2694177279764352
aF0.010585025243012436
aF0.0035627095070637086
aF0.004489365089814282
aF0.002565842769932219
aF0.009864574626833773
aF0.028422335497992814
aF0.055789556407984754
aF0.09559423048639622
aF0.14630477813553816
aF0.20455081670808328
aF0.26436992704835827
aF0.04002914366640424
aF0.20038212386430806
aF0.0041135054488982145
aF-0.0016163299749260246
aF0.05047448187097325
aF0.052588450360275436
aF2.570483234948151
aF0.02399459941272797
aF0.00800898534244167
aF0.010070810855780444
aF0.0057927505451011415
aF0.02230169881031986
aF0.06429489587694216
aF0.1269446050300312
aF0.2179251553874666
aF0.33460529629814667
aF0.4636632846342366
aF0.6040831939658019
aF0.0901506824746459
aF0.4519740393972023
aF0.008263111706743083
aF0.002861253003097976
aF0.025992822031755743
aF0.12831837070635718
aF3.915182629829073
aF0.03483118490878052
aF0.01163509479832029
aF0.014629394511605167
aF0.008386663438494011
aF0.03241225693006386
aF0.09338817879970858
aF0.18418015427467854
aF0.3166080121597263
aF0.4845606469800772
aF0.674440071601607
aF0.8779089372599456
aF0.1302293012916676
aF0.6554173981204333
aF0.0123348348762424
ag194
ag194
aF-0.002467890830797769
aF0.0024026091317374465
aF0.07244981673389943
aF1.2629869276730894
aF0.010618262327782737
aF0.003566822225615252
aF0.004494553151979401
aF0.0025710144914677024
aF0.009871498100340687
aF0.02838638184309963
aF0.05558197651714116
aF0.09548700792630908
aF0.14652011873790183
aF0.2042874967110699
aF0.26531136869000854
aF0.04017537916547358
aF0.20023317840767285
aF0.004106129359363032
aF-0.004253675213021644
aF0.049181969965103864
aF0.052588450360275436
aF2.59161907906157
aF0.02405977683018859
aF0.008017101467787127
aF0.010079801356434074
aF0.005806725004630335
aF0.022332266298251306
aF0.06420115257761914
aF0.12649777191953
aF0.2176313309002839
aF0.3348622521851161
aF0.46326042733826106
aF0.6068219371456509
aF0.09049735571515825
aF0.4515832411954622
aF0.008263733994974721
aF0.0015513965091674385
aF0.0262577396086794
aF0.13809697239273003
aF3.9498381729454546
aF0.03493077201831851
aF0.011652163575605891
aF0.014644796593095132
aF0.008405112884706306
aF0.032457451466757915
aF0.09327180795666094
aF0.18352895669299168
aF0.3159874887268294
aF0.4849670123285435
aF0.6738763212536099
aF0.8814430881088565
aF0.13071041213802817
aF0.6546770782382912
aF0.012335157173478942
ag194
ag194
aF-0.002467890830797769
aF0.000724770081349788
aF0.07560666504220219
aF1.2782033581138088
aF0.010512665814300074
aF0.0035748016103571514
aF0.0044863063082801235
aF0.002569220708026805
aF0.009903584549782267
aF0.028367902763269236
aF0.055943597943077995
aF0.09504861400257718
aF0.14692316063682032
aF0.20412735593097867
aF0.26412868136503825
aF0.039971388729792175
aF0.20044763736978635
aF0.004116332998736069
aF-0.004253675213021644
aF0.047200688123203736
aF0.04609005646113594
aF2.5737178765827835
aF0.023841193690370712
aF0.008029626911676
aF0.010065498802965759
aF0.005799874021071355
aF0.022399603216767785
aF0.06422960175757185
aF0.12727018769588536
aF0.21664331701874665
aF0.3362886938858227
aF0.46321478151853646
aF0.6039196041101409
aF0.08985376760157965
aF0.45218649458080035
aF0.008276372881393684
aF0.0015513965091674385
aF0.029991308228936888
aF0.1522119380807828
aF3.8961957301296324
aF0.03461046908497992
aF0.011665471128908
aF0.014618036209397393
aF0.008396418587406017
aF0.03255029349252258
aF0.09320946500627979
aF0.18471769631984183
aF0.31472067500913015
aF0.48687396351646767
aF0.6737426784203635
aF0.8778647992305479
aF0.12986519785074696
aF0.655357910026547
aF0.012342730100356365
ag194
ag194
aF-0.002467890830797769
aF0.00345161055710984
aF0.07244981673389943
aF1.2784776651998044
aF0.010558855374677108
aF0.0035620195915503842
aF0.004499922190921174
aF0.002562071017791762
aF0.009866493137096408
aF0.028367381675829927
aF0.055825898135299964
aF0.09547618980200412
aF0.1464661186768164
aF0.20440397102378952
aF0.26430961110224954
aF0.040071308672157815
aF0.20067454804695242
aF0.004116730325141942
aF-0.004253675213021644
aF0.04994323746726273
aF0.052588450360275436
aF2.5825798082612734
aF0.023953993751862412
aF0.00800008312017052
aF0.010095518925399656
aF0.0057839771046462405
aF0.022316560025497742
aF0.06422357600343633
aF0.12702068347016315
aF0.21769332486187348
aF0.3348745151504189
aF0.46336495803257743
aF0.604766241709031
aF0.09026698569971649
aF0.45269270424878816
aF0.008270395742780809
aF0.0015513965091674385
aF0.030933309575667728
aF0.1522119380807828
aF3.925545531591412
aF0.03477029907707626
aF0.011622741403824719
aF0.014665761079070961
aF0.008373176662079544
aF0.03242915961698622
aF0.09323239415490174
aF0.1842933463813474
aF0.31622568749262825
aF0.4849376871292639
aF0.6741179755540333
aF0.8786014255673317
aF0.13040403691315156
aF0.656309470455691
aF0.01233711032451817
ag194
ag194
aF-0.002467890830797769
aF0.00345161055710984
aF0.07244981673389943
aF1.277816253539363
aF0.010558855374677108
aF0.003562384106867567
aF0.004499922190921174
aF0.002562071017791762
aF0.009866493137096408
aF0.0283739537410372
aF0.05583988926789185
aF0.09547618980200412
aF0.1464661186768164
aF0.20440397102378952
aF0.26430961110224954
aF0.040071308672157815
aF0.2006263390570661
aF0.004116730325141942
aF-0.004253675213021644
aF0.04915443058805974
aF0.052588450360275436
aF2.5828775278721263
aF0.023953993751862412
aF0.008001418448555907
aF0.010095518925399656
aF0.0057839771046462405
aF0.022316560025497742
aF0.06424464241965527
aF0.1270572188363204
aF0.21769332486187348
aF0.3348745151504189
aF0.46336495803257743
aF0.604766241709031
aF0.09026698569971649
aF0.4525714491944563
aF0.008270343762708254
aF0.0015513965091674385
aF0.030933309575667728
aF0.1522119380807828
aF3.9262029956988354
aF0.03477029907707626
aF0.011624903585652147
aF0.014665761079070961
aF0.008373176662079544
aF0.03242915961698622
aF0.09326101856903378
aF0.18434354888550256
aF0.31622568749262825
aF0.4849376871292639
aF0.6741179755540333
aF0.8786014255673317
aF0.13040403691315156
aF0.6561226015648975
aF0.012337334824953224
ag194
ag194
aF-0.002467890830797769
aF0.00345161055710984
aF0.07244981673389943
aF1.2775251006266193
aF0.010561645255921915
aF0.0035620450417669473
aF0.004500768675042073
aF0.00256285086328308
aF0.0098731399211526
aF0.028364701949133077
aF0.05584371084826602
aF0.0954892054397734
aF0.1464490695017675
aF0.20441273109008645
aF0.2642797513623468
aF0.04007387381176108
aF0.20052059330716657
aF0.004117241858994299
aF-0.004253675213021644
aF0.04915443058805974
aF0.052588450360275436
aF2.5833271293713205
aF0.02396089314083495
aF0.008000712613623034
aF0.010097205494712581
aF0.0057858914885417344
aF0.02232991710041602
aF0.06421811575377487
aF0.1270490288771867
aF0.21774203442859683
aF0.334833904168968
aF0.4634486521024344
aF0.604718539034804
aF0.09027301022564965
aF0.4523656939159744
aF0.008270381602716748
aF0.0015513965091674385
aF0.030933309575667728
aF0.1522119380807828
aF3.927022626768145
aF0.03477958947954053
aF0.01162393872490041
aF0.014668139192086206
aF0.008375783078156411
aF0.03244740230161711
aF0.09322289742507228
aF0.18434157916490929
aF0.3162868652813514
aF0.4848771812016775
aF0.6742569615078823
aF0.8785415841576162
aF0.1304085405013738
aF0.6558109243089705
aF0.012336328890357195
ag194
ag194
aF-0.002467890830797769
aF0.00345161055710984
aF0.07244981673389943
aF1.2783278870585015
aF0.010558855374677108
aF0.003562050418339615
aF0.004500924723015377
aF0.0025621338497360756
aF0.009866493137096408
aF0.028367199845574512
aF0.05581328680202813
aF0.0954651177668581
aF0.1464661186768164
aF0.20448583187429453
aF0.264281225783571
aF0.04007568319032385
aF0.2006263390570661
aF0.004116952448147143
aF-0.004253675213021644
aF0.04915443058805974
aF0.052588450360275436
aF2.5848200735805134
aF0.023953993751862412
aF0.008000001861215165
aF0.010098080871265338
aF0.005784124839149774
aF0.022316560025497742
aF0.06422056473266999
aF0.12699522892947626
aF0.21765962843348574
aF0.3348745151504189
aF0.46361288434619985
aF0.6046881300167096
aF0.090272354192775
aF0.4525714491944563
aF0.008270559171561746
aF0.0015513965091674385
aF0.030933309575667728
aF0.1522119380807828
aF3.926383957836582
aF0.03477029907707626
aF0.011623544252308032
aF0.014668837856953847
aF0.00837324886361355
aF0.03242915961698622
aF0.09323005736942996
aF0.18425459342195447
aF0.3161825779353243
aF0.4849376871292639
aF0.6744315403918759
aF0.8784662661144041
aF0.1304112462884198
aF0.6561226015648975
aF0.012337466352966888
ag194
ag194
aF-0.0023280391770314425
aF0.0035542562382489657
aF0.07148877351150416
aF1.2744898462316148
aF0.010608435857926066
aF0.0035819088003186303
aF0.0045282630452850485
aF0.002578246747815226
aF0.009927562502356053
aF0.028527283298252312
aF0.056171421438925596
aF0.09589554882555482
aF0.14713515259695367
aF0.20545870044666603
aF0.2656092592597253
aF0.04027580637792662
aF0.20179280362234883
aF0.004112968647010811
aF-0.0042565432853556165
aF0.048793719057319294
aF0.05299269720356005
aF2.588317256511508
aF0.02386648340842669
aF0.00797874391310885
aF0.010078386631222142
aF0.005772489955364936
aF0.022259431031842317
aF0.06408466380977262
aF0.1266344658557409
aF0.2167781275434677
aF0.33321470595503877
aF0.46267335206331867
aF0.6028805628388102
aF0.09003115489154631
aF0.45122978974896816
aF0.008264140113291994
aF0.001595716061909599
aF0.02986724551931047
aF0.14930470313086222
aF3.9366701678678124
aF0.034654991852642696
aF0.011609703045902212
aF0.014671037576286069
aF0.008361989459533842
aF0.03236580418087009
aF0.09304730231164983
aF0.18384720536592664
aF0.3148446396320831
aF0.48266808869466343
aF0.6736500485634894
aF0.8756897137704821
aF0.13020477870493433
aF0.654657378420858
aF0.012318461610040228
ag194
ag194
aF-0.0024954990115750864
aF0.0033032277657039726
aF0.07245794413139119
aF1.2808103273418765
aF0.010503578129815146
aF0.0035425732040275356
aF0.0044734208574131774
aF0.0025468951896419705
aF0.009809009995100315
aF0.028203848225559998
aF0.05554541414280538
aF0.09502156914874689
aF0.14586721970806152
aF0.20315543172760422
aF0.26284388799097297
aF0.039881885247043176
aF0.19941788825800524
aF0.0041228931891764695
aF-0.004141873756758448
aF0.04953975826521633
aF0.05460434978309864
aF2.5800569746085276
aF0.024045277447954188
aF0.008023746659388811
aF0.010115592860534421
aF0.005799089231328815
aF0.02237210429497634
aF0.06436533342358632
aF0.12737022126317663
aF0.21863401972998028
aF0.33663869469751356
aF0.4645349078739526
aF0.6065542754564446
aF0.09052859719650243
aF0.45407928631292155
aF0.008275620765278944
aF0.001589993892712001
aF0.03256722196447005
aF0.1553703256838425
aF3.9232800153959744
aF0.03486944608741536
aF0.011634757670754173
aF0.014668144963962444
aF0.008377160301252446
aF0.03244330562641295
aF0.09332881835440901
aF0.18444323159287035
aF0.31714146415083044
aF0.4869916622438646
aF0.6745105600258028
aF0.879693139728825
aF0.13057049598177028
aF0.6569164197490066
aF0.012345027126258118
ag194
ag194
aF-0.0026541981600084943
aF0.003905099721542658
aF0.07325352659332574
aF1.2844556290707023
aF0.010461003173727104
aF0.0035536086584488386
aF0.004480180513632864
aF0.002560549277869741
aF0.009792308735681054
aF0.028019153437825205
aF0.05529812293402789
aF0.09438602804255362
aF0.14488625229630606
aF0.20214548122413437
aF0.2612934036116161
aF0.03999589279578073
aF0.20017060717753854
aF0.004115412679670878
aF-0.004252934498078582
aF0.04906843062701652
aF0.05095762394388757
aF2.581930173630803
aF0.023957803713628704
aF0.008005218993716324
aF0.010101081961132262
aF0.005790171796885176
aF0.022325289846090713
aF0.06423199021948044
aF0.12714725676895355
aF0.21779061088350182
aF0.3350550006738594
aF0.46371939821734737
aF0.6053051894987294
aF0.09031917703139368
aF0.4527452580617554
aF0.008271229393252704
aF0.0016127437050703663
aF0.031068105144027323
aF0.1534731916796857
aF3.926918530324026
aF0.03477664464212758
aF0.011630398991879138
aF0.01467459833377777
aF0.008381302813107856
aF0.0324347069694624
aF0.09324199507816545
aF0.18437395613719315
aF0.3162565308830562
aF0.4850587870250839
aF0.6744025589893528
aF0.8790406222777607
aF0.13043379012809794
aF0.6561836899661209
aF0.01234069820266392
ag194
ag194
aF-0.0022716298429635634
aF0.003192617657661887
aF0.07119697432742007
aF1.2723613800997837
aF0.010668808798801313
aF0.0035728264226088744
aF0.004521613472677434
aF0.0025660807696067335
aF0.009946755654758738
aF0.028743962354260032
aF0.05641517299401822
aF0.09667584495571438
aF0.14824585003692983
aF0.20688216326910638
aF0.2676026027597604
aF0.04016340752293398
aF0.20116628361690098
aF0.004118531775245841
aF-0.004307837207525117
aF0.04921215665318144
aF0.05431262773047056
aF2.5829828539164446
aF0.023949900543542263
aF0.007994892618148796
aF0.010086913867422808
aF0.005780807973829376
aF0.022309328947554875
aF0.06420351599342587
aF0.12687409224599497
aF0.2175749963505017
aF0.3346918354736337
aF0.46299253945893465
aF0.6042150815516406
aF0.09022270682645589
aF0.45232106116022286
aF0.008269085835169937
aF0.001497759324141558
aF0.030816959946175844
aF0.15090705881469854
aF3.924747222034364
aF0.03476535465909726
aF0.011619029063688668
aF0.014655954495805689
aF0.008368671911834144
aF0.03242335721384779
aF0.0932249908377093
aF0.18420520247671063
aF0.3162070260478694
aF0.4848294649279758
aF0.6738126005485178
aF0.8781616576144301
aF0.13037855423235725
aF0.656045653425668
aF0.012332625232753401
ag194
ag194
aF-0.00253645294985833
aF0.0036194894167210384
aF0.07074890834559461
aF1.2806257746104877
aF0.01047824624162719
aF0.003555150170919062
aF0.0044821194333438865
aF0.0025616594326165966
aF0.009805864879687336
aF0.028079451031488213
aF0.05538538154708191
aF0.09455708980044893
aF0.14511881643143504
aF0.2024221566863759
aF0.2617830477602282
aF0.040021282278169514
aF0.20036243796561187
aF0.004113614620720684
aF-0.004108998901811101
aF0.04885969515767855
aF0.049991877967917125
aF2.578168866832721
aF0.023962221697721952
aF0.00800513064752465
aF0.010099486022200715
aF0.005791115461981634
aF0.02233495768332511
aF0.0642701603031886
aF0.12718058054466877
aF0.21785672846024923
aF0.3351348430977241
aF0.4636188378300935
aF0.6053942327618815
aF0.09033787541111087
aF0.452893567976501
aF0.008270651288932045
aF0.001572553854194615
aF0.0308101170260494
aF0.15199981318926345
aF3.918555389472525
aF0.034771080773647996
aF0.01162578115069806
aF0.014666012274307826
aF0.008380407792455547
aF0.03243738255861384
aF0.09325963587847406
aF0.18434666629420235
aF0.31621634580211905
aF0.48497789982561945
aF0.67402489130323
aF0.8788484547043931
aF0.13042552360808202
aF0.6562596327377438
aF0.012340194440241013
ag194
ag194
aF-0.002401055142833697
aF0.003480675472087825
aF0.0741579793208846
aF1.2763969915887328
aF0.010648029248942157
aF0.0035707002850510765
aF0.0045196896732484036
aF0.0025643070948782026
aF0.009931135876107893
aF0.028675271218203683
aF0.05630898529369282
aF0.0964686923672753
aF0.14794566336305368
aF0.20654390275885567
aF0.2670395962867649
aF0.0401284236935537
aF0.2009242098061173
aF0.004120664570018613
aF-0.004467850393347102
aF0.049382948921530216
aF0.055254885438210354
aF2.587137372518395
aF0.023943885023127925
aF0.007995528591386301
aF0.010089301005621538
aF0.005779287655171717
aF0.02229792179412515
aF0.06416128586522192
aF0.12683385827580107
aF0.21750710905126155
aF0.3346017082170931
aF0.46308692698474446
aF0.6040920683061726
aF0.09020006750619085
aF0.45217007590804953
aF0.008269668268796214
aF0.0015571711906917265
aF0.031040937005860633
aF0.15236113026923864
aF3.933725026081052
aF0.034769844161550316
aF0.011623600523578366
aF0.014665268593681125
aF0.008369449910280779
aF0.03242054095098814
aF0.09320371444119954
aF0.1842317706671742
aF0.31625450097854924
aF0.4849013128387162
aF0.6742184431359285
aF0.8783734625082975
aF0.13038537629210298
aF0.6559559814252461
aF0.012333142576604604
ag194
ag194
aF-0.0024689018088272638
aF0.0033520445590988464
aF0.07291207013297181
aF1.2792125184206946
aF0.010501847473364934
aF0.0035346219555391577
aF0.0044666318426378835
aF0.002544996242385252
aF0.009821607267324796
aF0.028248866977652873
aF0.05552663256074694
aF0.09506254651339378
aF0.1460040770084497
aF0.20381864279386783
aF0.26310627812084036
aF0.039763993605301695
aF0.19916126989552954
aF0.004138006645749358
aF-0.004194470140214704
aF0.049082335997579205
aF0.051630538311524934
aF2.5685141106546507
aF0.024049536476017732
aF0.00801701939267611
aF0.010120032853977005
aF0.005800765826013432
aF0.022409324184358485
aF0.06457057624360922
aF0.12761582616518283
aF0.21873650827288177
aF0.3369288580412239
aF0.4664195432491859
aF0.6079041758884012
aF0.09042381740993845
aF0.45383667261512733
aF0.008293605980078111
aF0.0015547933215739988
aF0.030774704354711403
aF0.15064906048589682
aF3.9069376372832396
aF0.03493112522831436
aF0.011660730846907863
aF0.014715175227386416
aF0.008404552631539977
aF0.0325879727767586
aF0.09379471930762906
aF0.1852608777492935
aF0.3179058342562056
aF0.4880698117538852
aF0.6787075832712782
aF0.8834702013689922
aF0.13077223675201413
aF0.6585827463666143
aF0.012376649175037236
ag194
ag194
aF-0.0024646911964038296
aF0.0035617539969070187
aF0.07192470127423922
aF1.2768661474919787
aF0.010613622803741413
aF0.0035900396915972683
aF0.0045330036936026726
aF0.0025804675723521313
aF0.00990910766179459
aF0.028475721358566703
aF0.05611138558539284
aF0.09584695377294958
aF0.14685492404836617
aF0.20494355914527868
aF0.26540459182469545
aF0.04037147347970621
aF0.2020925993605288
aF0.004096118277782906
aF-0.004314401312787247
aF0.049225706034836884
aF0.05357522475805607
aF2.59700131040337
aF0.023855117296858463
aF0.00798497283674783
aF0.010069972796866248
aF0.005769439575792905
aF0.022220450564368194
aF0.06386737523903878
aF0.12641414532722972
aF0.21659932625949926
aF0.33278127368601684
aF0.46029464651080776
aF0.6015463683491683
aF0.09009123654799703
aF0.45123431956610277
aF0.008246313221292208
aF0.0015478342407996212
aF0.03109460298185699
aF0.15378768212386984
aF3.944598721674943
aF0.03460797319422869
aF0.011588455936267865
aF0.014615384955562805
aF0.00834522086814758
aF0.03226782506409369
aF0.09266421033131621
aF0.18332293081442289
aF0.31451055413120454
aF0.4817841939238775
aF0.669533558158218
aF0.8736751815625691
aF0.13002145192597084
aF0.6536136523884482
aF0.012295949015828074
ag194
ag194
aF-0.002466920709682037
aF0.0035168219139553574
aF0.07194049910861774
aF1.2732956758928413
aF0.010538963188651872
aF0.003557140869203874
aF0.0044935824532423225
aF0.0025608571720760974
aF0.00983889274987821
aF0.028328160215887004
aF0.05577184868868336
aF0.09528370158049188
aF0.14617568348935764
aF0.20402604826400988
aF0.2637548214223986
aF0.03995881921748594
aF0.20040958522206476
aF0.00410850177764456
aF-0.004287601555190094
aF0.04912121983433727
aF0.05174292330768976
aF2.578354150849297
aF0.023963926232875025
aF0.007999665734112753
aF0.010094211952487372
aF0.005788775276928426
aF0.022311980792786977
aF0.06428816878351024
aF0.12717665714996654
aF0.2178265798359589
aF0.33527872293311345
aF0.4637417130866685
aF0.6051363334938096
aF0.09017784626619647
aF0.45263090306549486
aF0.0082640632764975
aF0.0015522508878001956
aF0.031089327511432164
aF0.15151534065945277
aF3.9199517476288377
aF0.03475249864503128
aF0.011613394340165731
aF0.01465184731866322
aF0.008371935627328856
aF0.03239715622354955
aF0.09323300262560222
aF0.1843044852207846
aF0.31608528114040413
aF0.48502557202343544
aF0.6740073459956296
aF0.8783252564176288
aF0.13017223168659806
aF0.6556757741525004
aF0.012325596417637013
ag194
ag194
aF-0.0024666545348110813
aF0.0033987126006317157
aF0.07292775984444899
aF1.2829083403391346
aF0.010578027112821525
aF0.0035676416346494236
aF0.0045065152009754
aF0.002564958132637047
aF0.009893268942487512
aF0.02840014836742761
aF0.05586906134579383
aF0.09565552899183985
aF0.146715098715556
aF0.2047480565474193
aF0.26479254968077404
aF0.040188449338004105
aF0.20085559319032206
aF0.004125503595457939
aF-0.004217651862552513
aF0.04919001912561119
aF0.05341195808481772
aF2.5873766544834127
aF0.023944442963552054
aF0.008003089738097094
aF0.010096691461739702
aF0.0057824603411679104
aF0.022321067338389292
aF0.06415629312148365
aF0.12686108797859333
aF0.21755901274279665
aF0.3344646870351613
aF0.4629862855639462
aF0.6043667264177812
aF0.09035662605433178
aF0.4524959170248341
aF0.00827634106480216
aF0.0015507594457342714
aF0.03076822325047766
aF0.15289870306673795
aF3.9316847570593736
aF0.03478891814806527
aF0.011636675161491649
aF0.014679711944281595
aF0.008378575426287284
aF0.0324616721503785
aF0.0932317783601814
aF0.18427865955213416
aF0.31636706762312095
aF0.48484478466624303
aF0.6742302364242503
aF0.8788641789025363
aF0.13063950833812898
aF0.6565774648752599
aF0.012347987870014631
ag194
ag194
aF-0.0024390263511186684
aF0.0032046267121002177
aF0.07425353259098903
aF1.2665401066045248
aF0.010476358107999906
aF0.0035206873644141553
aF0.004457342749253426
aF0.0025423722117190496
aF0.009816996632391651
aF0.028164024368521404
aF0.054911435640563916
aF0.09491334294970775
aF0.14468333019750967
aF0.20330605250261827
aF0.263559873103141
aF0.039776563116794485
aF0.19804179763045374
aF0.004123861980007064
aF-0.004382459840224259
aF0.04722183250038729
aF0.05452357716498124
aF2.534561210784626
aF0.023983802134639104
aF0.00798490302429433
aF0.010071671214587064
aF0.005790718185889362
aF0.022360069972417074
aF0.06424447114175064
aF0.12660580486411638
aF0.21891440027723155
aF0.3346323476888137
aF0.46518136487963757
aF0.6066019363998806
aF0.09027025737602871
aF0.4514171411544637
aF0.008272336838626822
aF0.001670846310279862
aF0.030147196572940443
aF0.1451458192797193
aF3.858878835984714
aF0.034839800451206604
aF0.011612689420375763
aF0.014645303101081827
aF0.008389238156329701
aF0.032525255392419364
aF0.0933391947643954
aF0.18380945626421105
aF0.3183415058156998
aF0.48500360902626044
aF0.6772198089979983
aF0.881907229227162
aF0.1304565377290274
aF0.6549326531938945
aF0.012347574511393877
ag194
ag194
aF-0.002482999667973361
aF0.003479823547206843
aF0.07268257316491354
aF1.2934929166894724
aF0.010672732743559748
aF0.0036143468628243238
aF0.004559074701356879
aF0.0025817695622776518
aF0.0099319824159338
aF0.028599394709868855
aF0.05685409544801677
aF0.0959949575162073
aF0.14852747006138878
aF0.20532813757131124
aF0.26525014548796133
aF0.040441131878851865
aF0.20374798914146414
aF0.004111379339734675
aF-0.004017232153502274
aF0.051948889124650066
aF0.04699898062151188
aF2.6683403944911332
aF0.023908923604319888
aF0.008036031040361913
aF0.010140763464205362
aF0.005773021671500238
aF0.022216304470234052
aF0.06418033108327123
aF0.12784835282412757
aF0.21510294574721534
aF0.3353663337436855
aF0.45993829273559445
aF0.6011138204622413
aF0.09030885167016171
aF0.4547944389430249
aF0.008267055088747805
aF0.0016601898797269895
aF0.03294845262364076
aF0.18098645354580398
aF4.060588788710782
aF0.034659447455804356
aF0.011675920665689938
aF0.014698021916442936
aF0.008343512738041403
aF0.03221368247420796
aF0.09306790454794629
aF0.18550727817190396
aF0.31132740189326913
aF0.4849747572387218
aF0.6686125630874052
aF0.8720719938915812
aF0.13059381176443477
aF0.6600759779784255
aF0.012307419270595372
ag194
ag194
aF-0.0024293444070618213
aF0.003045324575389453
aF0.07298160047170087
aF1.2660684823813546
aF0.010471467273180218
aF0.0035211358294634973
aF0.004456353415356232
aF0.002543824891316848
aF0.009810609324967653
aF0.028146865140291872
aF0.05501170690399811
aF0.09493838052713668
aF0.14488809834225583
aF0.2032545017898356
aF0.2633271792296957
aF0.039766018929769775
aF0.19810585640890507
aF0.004120590648976476
aF-0.004362733407897034
aF0.04767685096438394
aF0.05523457579705028
aF2.5439224614554106
aF0.023962793722688693
aF0.007983043845491575
aF0.010073578420421047
aF0.0057891673657569495
aF0.022349881953679596
aF0.06422337560592878
aF0.12665664827692122
aF0.2186498941664305
aF0.3346380299988988
aF0.46474465958819483
aF0.606279191159209
aF0.0902369830497333
aF0.45127103605396834
aF0.00826940413538428
aF0.0016434934018624968
aF0.03024477116150831
aF0.1500465987771562
aF3.869860480435767
aF0.034802105960048874
aF0.011603650102218152
aF0.014642386946652418
aF0.00838532323487221
aF0.032500205394392905
aF0.09326590315812634
aF0.1838501614271142
aF0.3178624661669098
aF0.4849383909207365
aF0.6764690640854513
aF0.8808890462926404
aF0.1303739349025756
aF0.6544811990010834
aF0.012341128309422833
ag194
ag194
aF-0.0024998128495669625
aF0.0036496633807640367
aF0.07333023212528288
aF1.2938177583320716
aF0.01067177633616701
aF0.003610272724754303
aF0.0045544516558122
aF0.002581350471970561
aF0.009932041903500761
aF0.02862034413890619
aF0.05669783278217932
aF0.0959632354339942
aF0.1481972741693053
aF0.20543024925989503
aF0.2654853521176276
aF0.04043316617570955
aF0.20353985992483853
aF0.004114562767597487
aF-0.0040934884817463504
aF0.05103698429581986
aF0.048119240043995495
aF2.638338388912025
aF0.02394981218966245
aF0.008029304172240575
aF0.010128395915669067
aF0.005779155431088842
aF0.02225931791769702
aF0.06422418352302424
aF0.12754849480583502
aF0.21615400594760376
aF0.33520605772525564
aF0.46131064779499936
aF0.6023806050922782
aF0.0903359586462897
aF0.4545396657144065
aF0.008271837388322309
aF0.0015795465591171064
aF0.032268867773157205
aF0.16029821101090164
aF4.011799130392049
aF0.03473957183499098
aF0.011666482168103627
aF0.01469893179498357
aF0.00835897570767358
aF0.03231382516769218
aF0.09321285441197374
aF0.1849858536281275
aF0.313422611094457
aF0.48492929394504347
aF0.6707373498512846
aF0.8750324400535566
aF0.13061143572859854
aF0.6593960193500626
aF0.012327464750429451
ag194
ag194
atp415
ba(lp416
g15
(g16
(dp417
g18
g19
(g20
(I0
tp418
g22
tp419
Rp420
(I1
(I56
tp421
g29
I00
(lp422
g33
ag34
ag35
ag36
ag37
ag38
ag39
ag40
ag41
ag42
ag43
ag44
ag45
ag46
ag47
ag48
ag49
ag50
ag51
ag52
ag53
ag54
ag55
ag56
ag57
ag58
ag59
ag60
ag61
ag62
ag63
ag64
ag65
ag66
ag67
ag68
ag69
ag70
ag71
ag72
ag73
ag74
ag75
ag76
ag77
ag78
ag79
ag80
ag81
ag82
ag83
ag84
ag85
ag86
ag87
ag88
atp423
bsg90
Nstp424
Rp425
a(dp426
S'0.14.1'
p427
(dp428
S'axes'
p429
g14
sS'blocks'
p430
(lp431
(dp432
S'mgr_locs'
p433
c__builtin__
slice
p434
(I0
I56
I1
tp435
Rp436
sS'values'
p437
g111
sasstp438
bsb.