ccopy_reg
_reconstructor
p0
(cpandas.core.frame
DataFrame
p1
c__builtin__
object
p2
Ntp3
Rp4
(dp5
S'_metadata'
p6
(lp7
sS'_typ'
p8
S'dataframe'
p9
sS'_data'
p10
g0
(cpandas.core.internals
BlockManager
p11
g2
Ntp12
Rp13
((lp14
cpandas.core.indexes.base
_new_Index
p15
(cpandas.core.indexes.base
Index
p16
(dp17
S'data'
p18
cnumpy.core.multiarray
_reconstruct
p19
(cnumpy
ndarray
p20
(I0
tp21
S'b'
p22
tp23
Rp24
(I1
(I56
tp25
cnumpy
dtype
p26
(S'O8'
p27
I0
I1
tp28
Rp29
(I3
S'|'
p30
NNNI-1
I-1
I63
tp31
bI00
(lp32
S'year'
p33
aS'type'
p34
aS'procOriginal'
p35
aS'proc'
p36
aS'proc_s0'
p37
aS'cat'
p38
aS'inputWSFile'
p39
aS'nominalDataName'
p40
aS'modelWSFile'
p41
aS'model'
p42
aS'rate'
p43
aS'nominal_yield'
p44
aS'sumw2'
p45
aS'nominal_yield_COWCorr'
p46
aS'weight_electron_veto_sf_Diphoton_Photon_up_yield'
p47
aS'weight_electron_veto_sf_Diphoton_Photon_down_yield'
p48
aS'weight_electron_id_sf_SelectedElectron_up_yield'
p49
aS'weight_electron_id_sf_SelectedElectron_down_yield'
p50
aS'weight_muon_id_sfSTAT_SelectedMuon_up_yield'
p51
aS'weight_muon_id_sfSTAT_SelectedMuon_down_yield'
p52
aS'weight_muon_id_sfSYS_SelectedMuon_up_yield'
p53
aS'weight_muon_id_sfSYS_SelectedMuon_down_yield'
p54
aS'weight_muon_iso_sfSTAT_SelectedMuon_up_yield'
p55
aS'weight_muon_iso_sfSTAT_SelectedMuon_down_yield'
p56
aS'weight_muon_iso_sfSYS_SelectedMuon_up_yield'
p57
aS'weight_muon_iso_sfSYS_SelectedMuon_down_yield'
p58
aS'weight_trigger_sf_up_yield'
p59
aS'weight_trigger_sf_down_yield'
p60
aS'JER_up_yield'
p61
aS'JER_down_yield'
p62
aS'JES_up_yield'
p63
aS'JES_down_yield'
p64
aS'MET_JER_up_yield'
p65
aS'MET_JER_down_yield'
p66
aS'MET_JES_up_yield'
p67
aS'MET_JES_down_yield'
p68
aS'MET_Unclustered_up_yield'
p69
aS'MET_Unclustered_down_yield'
p70
aS'Muon_pt_up_yield'
p71
aS'Muon_pt_down_yield'
p72
aS'Tau_pt_up_yield'
p73
aS'Tau_pt_down_yield'
p74
aS'weight_btag_deepjet_sf_SelectedJet_jes_up_yield'
p75
aS'weight_btag_deepjet_sf_SelectedJet_jes_down_yield'
p76
aS'weight_btag_deepjet_sf_SelectedJet_lfstats1_up_yield'
p77
aS'weight_btag_deepjet_sf_SelectedJet_lfstats1_down_yield'
p78
aS'weight_btag_deepjet_sf_SelectedJet_lfstats2_up_yield'
p79
aS'weight_btag_deepjet_sf_SelectedJet_lfstats2_down_yield'
p80
aS'weight_btag_deepjet_sf_SelectedJet_hfstats1_up_yield'
p81
aS'weight_btag_deepjet_sf_SelectedJet_hfstats1_down_yield'
p82
aS'weight_btag_deepjet_sf_SelectedJet_hfstats2_up_yield'
p83
aS'weight_btag_deepjet_sf_SelectedJet_hfstats2_down_yield'
p84
aS'weight_btag_deepjet_sf_SelectedJet_cferr1_up_yield'
p85
aS'weight_btag_deepjet_sf_SelectedJet_cferr1_down_yield'
p86
aS'weight_btag_deepjet_sf_SelectedJet_cferr2_up_yield'
p87
aS'weight_btag_deepjet_sf_SelectedJet_cferr2_down_yield'
p88
atp89
bsS'name'
p90
Nstp91
Rp92
ag15
(cpandas.core.indexes.numeric
Int64Index
p93
(dp94
g18
g19
(g20
(I0
tp95
g22
tp96
Rp97
(I1
(I53
tp98
g26
(S'i8'
p99
I0
I1
tp100
Rp101
(I3
S'<'
p102
NNNI-1
I-1
I0
tp103
bI00
S'\x00\x00\x00\x00\x00\x00\x00\x00\x01\x00\x00\x00\x00\x00\x00\x00\x02\x00\x00\x00\x00\x00\x00\x00\x03\x00\x00\x00\x00\x00\x00\x00\x04\x00\x00\x00\x00\x00\x00\x00\x05\x00\x00\x00\x00\x00\x00\x00\x06\x00\x00\x00\x00\x00\x00\x00\x07\x00\x00\x00\x00\x00\x00\x00\x08\x00\x00\x00\x00\x00\x00\x00\t\x00\x00\x00\x00\x00\x00\x00\n\x00\x00\x00\x00\x00\x00\x00\x0b\x00\x00\x00\x00\x00\x00\x00\x0c\x00\x00\x00\x00\x00\x00\x00\r\x00\x00\x00\x00\x00\x00\x00\x0e\x00\x00\x00\x00\x00\x00\x00\x0f\x00\x00\x00\x00\x00\x00\x00\x10\x00\x00\x00\x00\x00\x00\x00\x11\x00\x00\x00\x00\x00\x00\x00\x12\x00\x00\x00\x00\x00\x00\x00\x13\x00\x00\x00\x00\x00\x00\x00\x14\x00\x00\x00\x00\x00\x00\x00\x15\x00\x00\x00\x00\x00\x00\x00\x16\x00\x00\x00\x00\x00\x00\x00\x17\x00\x00\x00\x00\x00\x00\x00\x18\x00\x00\x00\x00\x00\x00\x00\x19\x00\x00\x00\x00\x00\x00\x00\x1a\x00\x00\x00\x00\x00\x00\x00\x1b\x00\x00\x00\x00\x00\x00\x00\x1c\x00\x00\x00\x00\x00\x00\x00\x1d\x00\x00\x00\x00\x00\x00\x00\x1e\x00\x00\x00\x00\x00\x00\x00\x1f\x00\x00\x00\x00\x00\x00\x00 \x00\x00\x00\x00\x00\x00\x00!\x00\x00\x00\x00\x00\x00\x00"\x00\x00\x00\x00\x00\x00\x00#\x00\x00\x00\x00\x00\x00\x00$\x00\x00\x00\x00\x00\x00\x00%\x00\x00\x00\x00\x00\x00\x00&\x00\x00\x00\x00\x00\x00\x00\'\x00\x00\x00\x00\x00\x00\x00(\x00\x00\x00\x00\x00\x00\x00)\x00\x00\x00\x00\x00\x00\x00*\x00\x00\x00\x00\x00\x00\x00+\x00\x00\x00\x00\x00\x00\x00,\x00\x00\x00\x00\x00\x00\x00-\x00\x00\x00\x00\x00\x00\x00.\x00\x00\x00\x00\x00\x00\x00/\x00\x00\x00\x00\x00\x00\x000\x00\x00\x00\x00\x00\x00\x001\x00\x00\x00\x00\x00\x00\x002\x00\x00\x00\x00\x00\x00\x003\x00\x00\x00\x00\x00\x00\x004\x00\x00\x00\x00\x00\x00\x00'
p104
tp105
bsg90
Nstp106
Rp107
a(lp108
g19
(g20
(I0
tp109
g22
tp110
Rp111
(I1
(I56
I53
tp112
g29
I00
(lp113
S'2016'
p114
ag114
ag114
ag114
ag114
ag114
ag114
ag114
ag114
ag114
ag114
ag114
ag114
ag114
ag114
ag114
ag114
aS'2017'
p115
ag115
ag115
ag115
ag115
ag115
ag115
ag115
ag115
ag115
ag115
ag115
ag115
ag115
ag115
ag115
ag115
aS'2018'
p116
ag116
ag116
ag116
ag116
ag116
ag116
ag116
ag116
ag116
ag116
ag116
ag116
ag116
ag116
ag116
ag116
aS'merged'
p117
ag117
aS'sig'
p118
ag118
ag118
ag118
ag118
ag118
ag118
ag118
ag118
ag118
ag118
ag118
ag118
ag118
ag118
ag118
ag118
ag118
ag118
ag118
ag118
ag118
ag118
ag118
ag118
ag118
ag118
ag118
ag118
ag118
ag118
ag118
ag118
ag118
ag118
ag118
ag118
ag118
ag118
ag118
ag118
ag118
ag118
ag118
ag118
ag118
ag118
ag118
ag118
ag118
ag118
aS'bkg'
p119
ag18
aS'VH'
p120
aS'ggH'
p121
aS'ttH'
p122
aS'ttHHheft1'
p123
aS'ttHHheft10'
p124
aS'ttHHheft11'
p125
aS'ttHHheft12'
p126
aS'ttHHheft13'
p127
aS'ttHHheft2'
p128
aS'ttHHheft3'
p129
aS'ttHHheft4'
p130
aS'ttHHheft5'
p131
aS'ttHHheft6'
p132
aS'ttHHheft7'
p133
aS'ttHHheft8'
p134
aS'ttHHheft9'
p135
aS'ttHHheftSM'
p136
ag120
ag121
ag122
ag123
ag124
ag125
ag126
ag127
ag128
ag129
ag130
ag131
ag132
ag133
ag134
ag135
ag136
ag120
ag121
ag122
ag123
ag124
ag125
ag126
ag127
ag128
ag129
ag130
ag131
ag132
ag133
ag134
ag135
ag136
aS'bkg_mass'
p137
aS'data_obs'
p138
aS'VH_2016_hgg'
p139
aS'ggH_2016_hgg'
p140
aS'ttH_2016_hgg'
p141
aS'ttHHheft1_2016_hgg'
p142
aS'ttHHheft10_2016_hgg'
p143
aS'ttHHheft11_2016_hgg'
p144
aS'ttHHheft12_2016_hgg'
p145
aS'ttHHheft13_2016_hgg'
p146
aS'ttHHheft2_2016_hgg'
p147
aS'ttHHheft3_2016_hgg'
p148
aS'ttHHheft4_2016_hgg'
p149
aS'ttHHheft5_2016_hgg'
p150
aS'ttHHheft6_2016_hgg'
p151
aS'ttHHheft7_2016_hgg'
p152
aS'ttHHheft8_2016_hgg'
p153
aS'ttHHheft9_2016_hgg'
p154
aS'ttHHheftSM_2016_hgg'
p155
aS'VH_2017_hgg'
p156
aS'ggH_2017_hgg'
p157
aS'ttH_2017_hgg'
p158
aS'ttHHheft1_2017_hgg'
p159
aS'ttHHheft10_2017_hgg'
p160
aS'ttHHheft11_2017_hgg'
p161
aS'ttHHheft12_2017_hgg'
p162
aS'ttHHheft13_2017_hgg'
p163
aS'ttHHheft2_2017_hgg'
p164
aS'ttHHheft3_2017_hgg'
p165
aS'ttHHheft4_2017_hgg'
p166
aS'ttHHheft5_2017_hgg'
p167
aS'ttHHheft6_2017_hgg'
p168
aS'ttHHheft7_2017_hgg'
p169
aS'ttHHheft8_2017_hgg'
p170
aS'ttHHheft9_2017_hgg'
p171
aS'ttHHheftSM_2017_hgg'
p172
aS'VH_2018_hgg'
p173
aS'ggH_2018_hgg'
p174
aS'ttH_2018_hgg'
p175
aS'ttHHheft1_2018_hgg'
p176
aS'ttHHheft10_2018_hgg'
p177
aS'ttHHheft11_2018_hgg'
p178
aS'ttHHheft12_2018_hgg'
p179
aS'ttHHheft13_2018_hgg'
p180
aS'ttHHheft2_2018_hgg'
p181
aS'ttHHheft3_2018_hgg'
p182
aS'ttHHheft4_2018_hgg'
p183
aS'ttHHheft5_2018_hgg'
p184
aS'ttHHheft6_2018_hgg'
p185
aS'ttHHheft7_2018_hgg'
p186
aS'ttHHheft8_2018_hgg'
p187
aS'ttHHheft9_2018_hgg'
p188
aS'ttHHheftSM_2018_hgg'
p189
ag137
ag138
ag120
ag121
ag122
ag123
ag124
ag125
ag126
ag127
ag128
ag129
ag130
ag131
ag132
ag133
ag134
ag135
ag136
ag120
ag121
ag122
ag123
ag124
ag125
ag126
ag127
ag128
ag129
ag130
ag131
ag132
ag133
ag134
ag135
ag136
ag120
ag121
ag122
ag123
ag124
ag125
ag126
ag127
ag128
ag129
ag130
ag131
ag132
ag133
ag134
ag135
ag136
aS'-'
p190
ag190
aS'SR1'
p191
ag191
ag191
ag191
ag191
ag191
ag191
ag191
ag191
ag191
ag191
ag191
ag191
ag191
ag191
ag191
ag191
ag191
ag191
ag191
ag191
ag191
ag191
ag191
ag191
ag191
ag191
ag191
ag191
ag191
ag191
ag191
ag191
ag191
ag191
ag191
ag191
ag191
ag191
ag191
ag191
ag191
ag191
ag191
ag191
ag191
ag191
ag191
ag191
ag191
ag191
ag191
ag191
aS'/home/users/azecchin/Analysis/FinalFit/CMSSW_10_2_13/src/flashggFinalFit/files_systs/HEFTbr/ws_signal_2016/output_VH_M125_13TeV_pythia8_VH.root'
p192
aS'/home/users/azecchin/Analysis/FinalFit/CMSSW_10_2_13/src/flashggFinalFit/files_systs/HEFTbr/ws_signal_2016/output_ggH_M125_13TeV_pythia8_ggH.root'
p193
aS'/home/users/azecchin/Analysis/FinalFit/CMSSW_10_2_13/src/flashggFinalFit/files_systs/HEFTbr/ws_signal_2016/output_ttH_M125_13TeV_pythia8_ttH.root'
p194
aS'/home/users/azecchin/Analysis/FinalFit/CMSSW_10_2_13/src/flashggFinalFit/files_systs/HEFTbr/ws_signal_2016/output_ttHHheft1_M125_13TeV_pythia8_ttHHheft1.root'
p195
aS'/home/users/azecchin/Analysis/FinalFit/CMSSW_10_2_13/src/flashggFinalFit/files_systs/HEFTbr/ws_signal_2016/output_ttHHheft10_M125_13TeV_pythia8_ttHHheft10.root'
p196
aS'/home/users/azecchin/Analysis/FinalFit/CMSSW_10_2_13/src/flashggFinalFit/files_systs/HEFTbr/ws_signal_2016/output_ttHHheft11_M125_13TeV_pythia8_ttHHheft11.root'
p197
aS'/home/users/azecchin/Analysis/FinalFit/CMSSW_10_2_13/src/flashggFinalFit/files_systs/HEFTbr/ws_signal_2016/output_ttHHheft12_M125_13TeV_pythia8_ttHHheft12.root'
p198
aS'/home/users/azecchin/Analysis/FinalFit/CMSSW_10_2_13/src/flashggFinalFit/files_systs/HEFTbr/ws_signal_2016/output_ttHHheft13_M125_13TeV_pythia8_ttHHheft13.root'
p199
aS'/home/users/azecchin/Analysis/FinalFit/CMSSW_10_2_13/src/flashggFinalFit/files_systs/HEFTbr/ws_signal_2016/output_ttHHheft2_M125_13TeV_pythia8_ttHHheft2.root'
p200
aS'/home/users/azecchin/Analysis/FinalFit/CMSSW_10_2_13/src/flashggFinalFit/files_systs/HEFTbr/ws_signal_2016/output_ttHHheft3_M125_13TeV_pythia8_ttHHheft3.root'
p201
aS'/home/users/azecchin/Analysis/FinalFit/CMSSW_10_2_13/src/flashggFinalFit/files_systs/HEFTbr/ws_signal_2016/output_ttHHheft4_M125_13TeV_pythia8_ttHHheft4.root'
p202
aS'/home/users/azecchin/Analysis/FinalFit/CMSSW_10_2_13/src/flashggFinalFit/files_systs/HEFTbr/ws_signal_2016/output_ttHHheft5_M125_13TeV_pythia8_ttHHheft5.root'
p203
aS'/home/users/azecchin/Analysis/FinalFit/CMSSW_10_2_13/src/flashggFinalFit/files_systs/HEFTbr/ws_signal_2016/output_ttHHheft6_M125_13TeV_pythia8_ttHHheft6.root'
p204
aS'/home/users/azecchin/Analysis/FinalFit/CMSSW_10_2_13/src/flashggFinalFit/files_systs/HEFTbr/ws_signal_2016/output_ttHHheft7_M125_13TeV_pythia8_ttHHheft7.root'
p205
aS'/home/users/azecchin/Analysis/FinalFit/CMSSW_10_2_13/src/flashggFinalFit/files_systs/HEFTbr/ws_signal_2016/output_ttHHheft8_M125_13TeV_pythia8_ttHHheft8.root'
p206
aS'/home/users/azecchin/Analysis/FinalFit/CMSSW_10_2_13/src/flashggFinalFit/files_systs/HEFTbr/ws_signal_2016/output_ttHHheft9_M125_13TeV_pythia8_ttHHheft9.root'
p207
aS'/home/users/azecchin/Analysis/FinalFit/CMSSW_10_2_13/src/flashggFinalFit/files_systs/HEFTbr/ws_signal_2016/output_ttHHheftSM_M125_13TeV_pythia8_ttHHheftSM.root'
p208
aS'/home/users/azecchin/Analysis/FinalFit/CMSSW_10_2_13/src/flashggFinalFit/files_systs/HEFTbr/ws_signal_2017/output_VH_M125_13TeV_pythia8_VH.root'
p209
aS'/home/users/azecchin/Analysis/FinalFit/CMSSW_10_2_13/src/flashggFinalFit/files_systs/HEFTbr/ws_signal_2017/output_ggH_M125_13TeV_pythia8_ggH.root'
p210
aS'/home/users/azecchin/Analysis/FinalFit/CMSSW_10_2_13/src/flashggFinalFit/files_systs/HEFTbr/ws_signal_2017/output_ttH_M125_13TeV_pythia8_ttH.root'
p211
aS'/home/users/azecchin/Analysis/FinalFit/CMSSW_10_2_13/src/flashggFinalFit/files_systs/HEFTbr/ws_signal_2017/output_ttHHheft1_M125_13TeV_pythia8_ttHHheft1.root'
p212
aS'/home/users/azecchin/Analysis/FinalFit/CMSSW_10_2_13/src/flashggFinalFit/files_systs/HEFTbr/ws_signal_2017/output_ttHHheft10_M125_13TeV_pythia8_ttHHheft10.root'
p213
aS'/home/users/azecchin/Analysis/FinalFit/CMSSW_10_2_13/src/flashggFinalFit/files_systs/HEFTbr/ws_signal_2017/output_ttHHheft11_M125_13TeV_pythia8_ttHHheft11.root'
p214
aS'/home/users/azecchin/Analysis/FinalFit/CMSSW_10_2_13/src/flashggFinalFit/files_systs/HEFTbr/ws_signal_2017/output_ttHHheft12_M125_13TeV_pythia8_ttHHheft12.root'
p215
aS'/home/users/azecchin/Analysis/FinalFit/CMSSW_10_2_13/src/flashggFinalFit/files_systs/HEFTbr/ws_signal_2017/output_ttHHheft13_M125_13TeV_pythia8_ttHHheft13.root'
p216
aS'/home/users/azecchin/Analysis/FinalFit/CMSSW_10_2_13/src/flashggFinalFit/files_systs/HEFTbr/ws_signal_2017/output_ttHHheft2_M125_13TeV_pythia8_ttHHheft2.root'
p217
aS'/home/users/azecchin/Analysis/FinalFit/CMSSW_10_2_13/src/flashggFinalFit/files_systs/HEFTbr/ws_signal_2017/output_ttHHheft3_M125_13TeV_pythia8_ttHHheft3.root'
p218
aS'/home/users/azecchin/Analysis/FinalFit/CMSSW_10_2_13/src/flashggFinalFit/files_systs/HEFTbr/ws_signal_2017/output_ttHHheft4_M125_13TeV_pythia8_ttHHheft4.root'
p219
aS'/home/users/azecchin/Analysis/FinalFit/CMSSW_10_2_13/src/flashggFinalFit/files_systs/HEFTbr/ws_signal_2017/output_ttHHheft5_M125_13TeV_pythia8_ttHHheft5.root'
p220
aS'/home/users/azecchin/Analysis/FinalFit/CMSSW_10_2_13/src/flashggFinalFit/files_systs/HEFTbr/ws_signal_2017/output_ttHHheft6_M125_13TeV_pythia8_ttHHheft6.root'
p221
aS'/home/users/azecchin/Analysis/FinalFit/CMSSW_10_2_13/src/flashggFinalFit/files_systs/HEFTbr/ws_signal_2017/output_ttHHheft7_M125_13TeV_pythia8_ttHHheft7.root'
p222
aS'/home/users/azecchin/Analysis/FinalFit/CMSSW_10_2_13/src/flashggFinalFit/files_systs/HEFTbr/ws_signal_2017/output_ttHHheft8_M125_13TeV_pythia8_ttHHheft8.root'
p223
aS'/home/users/azecchin/Analysis/FinalFit/CMSSW_10_2_13/src/flashggFinalFit/files_systs/HEFTbr/ws_signal_2017/output_ttHHheft9_M125_13TeV_pythia8_ttHHheft9.root'
p224
aS'/home/users/azecchin/Analysis/FinalFit/CMSSW_10_2_13/src/flashggFinalFit/files_systs/HEFTbr/ws_signal_2017/output_ttHHheftSM_M125_13TeV_pythia8_ttHHheftSM.root'
p225
aS'/home/users/azecchin/Analysis/FinalFit/CMSSW_10_2_13/src/flashggFinalFit/files_systs/HEFTbr/ws_signal_2018/output_VH_M125_13TeV_pythia8_VH.root'
p226
aS'/home/users/azecchin/Analysis/FinalFit/CMSSW_10_2_13/src/flashggFinalFit/files_systs/HEFTbr/ws_signal_2018/output_ggH_M125_13TeV_pythia8_ggH.root'
p227
aS'/home/users/azecchin/Analysis/FinalFit/CMSSW_10_2_13/src/flashggFinalFit/files_systs/HEFTbr/ws_signal_2018/output_ttH_M125_13TeV_pythia8_ttH.root'
p228
aS'/home/users/azecchin/Analysis/FinalFit/CMSSW_10_2_13/src/flashggFinalFit/files_systs/HEFTbr/ws_signal_2018/output_ttHHheft1_M125_13TeV_pythia8_ttHHheft1.root'
p229
aS'/home/users/azecchin/Analysis/FinalFit/CMSSW_10_2_13/src/flashggFinalFit/files_systs/HEFTbr/ws_signal_2018/output_ttHHheft10_M125_13TeV_pythia8_ttHHheft10.root'
p230
aS'/home/users/azecchin/Analysis/FinalFit/CMSSW_10_2_13/src/flashggFinalFit/files_systs/HEFTbr/ws_signal_2018/output_ttHHheft11_M125_13TeV_pythia8_ttHHheft11.root'
p231
aS'/home/users/azecchin/Analysis/FinalFit/CMSSW_10_2_13/src/flashggFinalFit/files_systs/HEFTbr/ws_signal_2018/output_ttHHheft12_M125_13TeV_pythia8_ttHHheft12.root'
p232
aS'/home/users/azecchin/Analysis/FinalFit/CMSSW_10_2_13/src/flashggFinalFit/files_systs/HEFTbr/ws_signal_2018/output_ttHHheft13_M125_13TeV_pythia8_ttHHheft13.root'
p233
aS'/home/users/azecchin/Analysis/FinalFit/CMSSW_10_2_13/src/flashggFinalFit/files_systs/HEFTbr/ws_signal_2018/output_ttHHheft2_M125_13TeV_pythia8_ttHHheft2.root'
p234
aS'/home/users/azecchin/Analysis/FinalFit/CMSSW_10_2_13/src/flashggFinalFit/files_systs/HEFTbr/ws_signal_2018/output_ttHHheft3_M125_13TeV_pythia8_ttHHheft3.root'
p235
aS'/home/users/azecchin/Analysis/FinalFit/CMSSW_10_2_13/src/flashggFinalFit/files_systs/HEFTbr/ws_signal_2018/output_ttHHheft4_M125_13TeV_pythia8_ttHHheft4.root'
p236
aS'/home/users/azecchin/Analysis/FinalFit/CMSSW_10_2_13/src/flashggFinalFit/files_systs/HEFTbr/ws_signal_2018/output_ttHHheft5_M125_13TeV_pythia8_ttHHheft5.root'
p237
aS'/home/users/azecchin/Analysis/FinalFit/CMSSW_10_2_13/src/flashggFinalFit/files_systs/HEFTbr/ws_signal_2018/output_ttHHheft6_M125_13TeV_pythia8_ttHHheft6.root'
p238
aS'/home/users/azecchin/Analysis/FinalFit/CMSSW_10_2_13/src/flashggFinalFit/files_systs/HEFTbr/ws_signal_2018/output_ttHHheft7_M125_13TeV_pythia8_ttHHheft7.root'
p239
aS'/home/users/azecchin/Analysis/FinalFit/CMSSW_10_2_13/src/flashggFinalFit/files_systs/HEFTbr/ws_signal_2018/output_ttHHheft8_M125_13TeV_pythia8_ttHHheft8.root'
p240
aS'/home/users/azecchin/Analysis/FinalFit/CMSSW_10_2_13/src/flashggFinalFit/files_systs/HEFTbr/ws_signal_2018/output_ttHHheft9_M125_13TeV_pythia8_ttHHheft9.root'
p241
aS'/home/users/azecchin/Analysis/FinalFit/CMSSW_10_2_13/src/flashggFinalFit/files_systs/HEFTbr/ws_signal_2018/output_ttHHheftSM_M125_13TeV_pythia8_ttHHheftSM.root'
p242
ag190
ag190
aS'VH_125_13TeV_SR1'
p243
aS'ggH_125_13TeV_SR1'
p244
aS'ttH_125_13TeV_SR1'
p245
aS'ttHHheft1_125_13TeV_SR1'
p246
aS'ttHHheft10_125_13TeV_SR1'
p247
aS'ttHHheft11_125_13TeV_SR1'
p248
aS'ttHHheft12_125_13TeV_SR1'
p249
aS'ttHHheft13_125_13TeV_SR1'
p250
aS'ttHHheft2_125_13TeV_SR1'
p251
aS'ttHHheft3_125_13TeV_SR1'
p252
aS'ttHHheft4_125_13TeV_SR1'
p253
aS'ttHHheft5_125_13TeV_SR1'
p254
aS'ttHHheft6_125_13TeV_SR1'
p255
aS'ttHHheft7_125_13TeV_SR1'
p256
aS'ttHHheft8_125_13TeV_SR1'
p257
aS'ttHHheft9_125_13TeV_SR1'
p258
aS'ttHHheftSM_125_13TeV_SR1'
p259
aS'VH_125_13TeV_SR1'
p260
aS'ggH_125_13TeV_SR1'
p261
aS'ttH_125_13TeV_SR1'
p262
aS'ttHHheft1_125_13TeV_SR1'
p263
aS'ttHHheft10_125_13TeV_SR1'
p264
aS'ttHHheft11_125_13TeV_SR1'
p265
aS'ttHHheft12_125_13TeV_SR1'
p266
aS'ttHHheft13_125_13TeV_SR1'
p267
aS'ttHHheft2_125_13TeV_SR1'
p268
aS'ttHHheft3_125_13TeV_SR1'
p269
aS'ttHHheft4_125_13TeV_SR1'
p270
aS'ttHHheft5_125_13TeV_SR1'
p271
aS'ttHHheft6_125_13TeV_SR1'
p272
aS'ttHHheft7_125_13TeV_SR1'
p273
aS'ttHHheft8_125_13TeV_SR1'
p274
aS'ttHHheft9_125_13TeV_SR1'
p275
aS'ttHHheftSM_125_13TeV_SR1'
p276
aS'VH_125_13TeV_SR1'
p277
aS'ggH_125_13TeV_SR1'
p278
aS'ttH_125_13TeV_SR1'
p279
aS'ttHHheft1_125_13TeV_SR1'
p280
aS'ttHHheft10_125_13TeV_SR1'
p281
aS'ttHHheft11_125_13TeV_SR1'
p282
aS'ttHHheft12_125_13TeV_SR1'
p283
aS'ttHHheft13_125_13TeV_SR1'
p284
aS'ttHHheft2_125_13TeV_SR1'
p285
aS'ttHHheft3_125_13TeV_SR1'
p286
aS'ttHHheft4_125_13TeV_SR1'
p287
aS'ttHHheft5_125_13TeV_SR1'
p288
aS'ttHHheft6_125_13TeV_SR1'
p289
aS'ttHHheft7_125_13TeV_SR1'
p290
aS'ttHHheft8_125_13TeV_SR1'
p291
aS'ttHHheft9_125_13TeV_SR1'
p292
aS'ttHHheftSM_125_13TeV_SR1'
p293
ag190
ag190
aS'./Models/signal/CMS-HGG_sigfit_packaged_SR1.root'
p294
aS'./Models/signal/CMS-HGG_sigfit_packaged_SR1.root'
p295
aS'./Models/signal/CMS-HGG_sigfit_packaged_SR1.root'
p296
aS'./Models/signal/CMS-HGG_sigfit_packaged_SR1.root'
p297
aS'./Models/signal/CMS-HGG_sigfit_packaged_SR1.root'
p298
aS'./Models/signal/CMS-HGG_sigfit_packaged_SR1.root'
p299
aS'./Models/signal/CMS-HGG_sigfit_packaged_SR1.root'
p300
aS'./Models/signal/CMS-HGG_sigfit_packaged_SR1.root'
p301
aS'./Models/signal/CMS-HGG_sigfit_packaged_SR1.root'
p302
aS'./Models/signal/CMS-HGG_sigfit_packaged_SR1.root'
p303
aS'./Models/signal/CMS-HGG_sigfit_packaged_SR1.root'
p304
aS'./Models/signal/CMS-HGG_sigfit_packaged_SR1.root'
p305
aS'./Models/signal/CMS-HGG_sigfit_packaged_SR1.root'
p306
aS'./Models/signal/CMS-HGG_sigfit_packaged_SR1.root'
p307
aS'./Models/signal/CMS-HGG_sigfit_packaged_SR1.root'
p308
aS'./Models/signal/CMS-HGG_sigfit_packaged_SR1.root'
p309
aS'./Models/signal/CMS-HGG_sigfit_packaged_SR1.root'
p310
aS'./Models/signal/CMS-HGG_sigfit_packaged_SR1.root'
p311
aS'./Models/signal/CMS-HGG_sigfit_packaged_SR1.root'
p312
aS'./Models/signal/CMS-HGG_sigfit_packaged_SR1.root'
p313
aS'./Models/signal/CMS-HGG_sigfit_packaged_SR1.root'
p314
aS'./Models/signal/CMS-HGG_sigfit_packaged_SR1.root'
p315
aS'./Models/signal/CMS-HGG_sigfit_packaged_SR1.root'
p316
aS'./Models/signal/CMS-HGG_sigfit_packaged_SR1.root'
p317
aS'./Models/signal/CMS-HGG_sigfit_packaged_SR1.root'
p318
aS'./Models/signal/CMS-HGG_sigfit_packaged_SR1.root'
p319
aS'./Models/signal/CMS-HGG_sigfit_packaged_SR1.root'
p320
aS'./Models/signal/CMS-HGG_sigfit_packaged_SR1.root'
p321
aS'./Models/signal/CMS-HGG_sigfit_packaged_SR1.root'
p322
aS'./Models/signal/CMS-HGG_sigfit_packaged_SR1.root'
p323
aS'./Models/signal/CMS-HGG_sigfit_packaged_SR1.root'
p324
aS'./Models/signal/CMS-HGG_sigfit_packaged_SR1.root'
p325
aS'./Models/signal/CMS-HGG_sigfit_packaged_SR1.root'
p326
aS'./Models/signal/CMS-HGG_sigfit_packaged_SR1.root'
p327
aS'./Models/signal/CMS-HGG_sigfit_packaged_SR1.root'
p328
aS'./Models/signal/CMS-HGG_sigfit_packaged_SR1.root'
p329
aS'./Models/signal/CMS-HGG_sigfit_packaged_SR1.root'
p330
aS'./Models/signal/CMS-HGG_sigfit_packaged_SR1.root'
p331
aS'./Models/signal/CMS-HGG_sigfit_packaged_SR1.root'
p332
aS'./Models/signal/CMS-HGG_sigfit_packaged_SR1.root'
p333
aS'./Models/signal/CMS-HGG_sigfit_packaged_SR1.root'
p334
aS'./Models/signal/CMS-HGG_sigfit_packaged_SR1.root'
p335
aS'./Models/signal/CMS-HGG_sigfit_packaged_SR1.root'
p336
aS'./Models/signal/CMS-HGG_sigfit_packaged_SR1.root'
p337
aS'./Models/signal/CMS-HGG_sigfit_packaged_SR1.root'
p338
aS'./Models/signal/CMS-HGG_sigfit_packaged_SR1.root'
p339
aS'./Models/signal/CMS-HGG_sigfit_packaged_SR1.root'
p340
aS'./Models/signal/CMS-HGG_sigfit_packaged_SR1.root'
p341
aS'./Models/signal/CMS-HGG_sigfit_packaged_SR1.root'
p342
aS'./Models/signal/CMS-HGG_sigfit_packaged_SR1.root'
p343
aS'./Models/signal/CMS-HGG_sigfit_packaged_SR1.root'
p344
aS'./Models/background/CMS-HGG_multipdf_SR1.root'
p345
ag345
aS'wsig_13TeV:hggpdfsmrel_VH_2016_SR1_13TeV'
p346
aS'wsig_13TeV:hggpdfsmrel_ggH_2016_SR1_13TeV'
p347
aS'wsig_13TeV:hggpdfsmrel_ttH_2016_SR1_13TeV'
p348
aS'wsig_13TeV:hggpdfsmrel_ttHHheft1_2016_SR1_13TeV'
p349
aS'wsig_13TeV:hggpdfsmrel_ttHHheft10_2016_SR1_13TeV'
p350
aS'wsig_13TeV:hggpdfsmrel_ttHHheft11_2016_SR1_13TeV'
p351
aS'wsig_13TeV:hggpdfsmrel_ttHHheft12_2016_SR1_13TeV'
p352
aS'wsig_13TeV:hggpdfsmrel_ttHHheft13_2016_SR1_13TeV'
p353
aS'wsig_13TeV:hggpdfsmrel_ttHHheft2_2016_SR1_13TeV'
p354
aS'wsig_13TeV:hggpdfsmrel_ttHHheft3_2016_SR1_13TeV'
p355
aS'wsig_13TeV:hggpdfsmrel_ttHHheft4_2016_SR1_13TeV'
p356
aS'wsig_13TeV:hggpdfsmrel_ttHHheft5_2016_SR1_13TeV'
p357
aS'wsig_13TeV:hggpdfsmrel_ttHHheft6_2016_SR1_13TeV'
p358
aS'wsig_13TeV:hggpdfsmrel_ttHHheft7_2016_SR1_13TeV'
p359
aS'wsig_13TeV:hggpdfsmrel_ttHHheft8_2016_SR1_13TeV'
p360
aS'wsig_13TeV:hggpdfsmrel_ttHHheft9_2016_SR1_13TeV'
p361
aS'wsig_13TeV:hggpdfsmrel_ttHHheftSM_2016_SR1_13TeV'
p362
aS'wsig_13TeV:hggpdfsmrel_VH_2017_SR1_13TeV'
p363
aS'wsig_13TeV:hggpdfsmrel_ggH_2017_SR1_13TeV'
p364
aS'wsig_13TeV:hggpdfsmrel_ttH_2017_SR1_13TeV'
p365
aS'wsig_13TeV:hggpdfsmrel_ttHHheft1_2017_SR1_13TeV'
p366
aS'wsig_13TeV:hggpdfsmrel_ttHHheft10_2017_SR1_13TeV'
p367
aS'wsig_13TeV:hggpdfsmrel_ttHHheft11_2017_SR1_13TeV'
p368
aS'wsig_13TeV:hggpdfsmrel_ttHHheft12_2017_SR1_13TeV'
p369
aS'wsig_13TeV:hggpdfsmrel_ttHHheft13_2017_SR1_13TeV'
p370
aS'wsig_13TeV:hggpdfsmrel_ttHHheft2_2017_SR1_13TeV'
p371
aS'wsig_13TeV:hggpdfsmrel_ttHHheft3_2017_SR1_13TeV'
p372
aS'wsig_13TeV:hggpdfsmrel_ttHHheft4_2017_SR1_13TeV'
p373
aS'wsig_13TeV:hggpdfsmrel_ttHHheft5_2017_SR1_13TeV'
p374
aS'wsig_13TeV:hggpdfsmrel_ttHHheft6_2017_SR1_13TeV'
p375
aS'wsig_13TeV:hggpdfsmrel_ttHHheft7_2017_SR1_13TeV'
p376
aS'wsig_13TeV:hggpdfsmrel_ttHHheft8_2017_SR1_13TeV'
p377
aS'wsig_13TeV:hggpdfsmrel_ttHHheft9_2017_SR1_13TeV'
p378
aS'wsig_13TeV:hggpdfsmrel_ttHHheftSM_2017_SR1_13TeV'
p379
aS'wsig_13TeV:hggpdfsmrel_VH_2018_SR1_13TeV'
p380
aS'wsig_13TeV:hggpdfsmrel_ggH_2018_SR1_13TeV'
p381
aS'wsig_13TeV:hggpdfsmrel_ttH_2018_SR1_13TeV'
p382
aS'wsig_13TeV:hggpdfsmrel_ttHHheft1_2018_SR1_13TeV'
p383
aS'wsig_13TeV:hggpdfsmrel_ttHHheft10_2018_SR1_13TeV'
p384
aS'wsig_13TeV:hggpdfsmrel_ttHHheft11_2018_SR1_13TeV'
p385
aS'wsig_13TeV:hggpdfsmrel_ttHHheft12_2018_SR1_13TeV'
p386
aS'wsig_13TeV:hggpdfsmrel_ttHHheft13_2018_SR1_13TeV'
p387
aS'wsig_13TeV:hggpdfsmrel_ttHHheft2_2018_SR1_13TeV'
p388
aS'wsig_13TeV:hggpdfsmrel_ttHHheft3_2018_SR1_13TeV'
p389
aS'wsig_13TeV:hggpdfsmrel_ttHHheft4_2018_SR1_13TeV'
p390
aS'wsig_13TeV:hggpdfsmrel_ttHHheft5_2018_SR1_13TeV'
p391
aS'wsig_13TeV:hggpdfsmrel_ttHHheft6_2018_SR1_13TeV'
p392
aS'wsig_13TeV:hggpdfsmrel_ttHHheft7_2018_SR1_13TeV'
p393
aS'wsig_13TeV:hggpdfsmrel_ttHHheft8_2018_SR1_13TeV'
p394
aS'wsig_13TeV:hggpdfsmrel_ttHHheft9_2018_SR1_13TeV'
p395
aS'wsig_13TeV:hggpdfsmrel_ttHHheftSM_2018_SR1_13TeV'
p396
aS'multipdf:CMS_hgg_SR1_13TeV_bkgshape'
p397
aS'multipdf:roohist_data_mass_SR1'
p398
aI1000
aI1000
aI1000
aI1000
aI1000
aI1000
aI1000
aI1000
aI1000
aI1000
aI1000
aI1000
aI1000
aI1000
aI1000
aI1000
aI1000
aI1000
aI1000
aI1000
aI1000
aI1000
aI1000
aI1000
aI1000
aI1000
aI1000
aI1000
aI1000
aI1000
aI1000
aI1000
aI1000
aI1000
aI1000
aI1000
aI1000
aI1000
aI1000
aI1000
aI1000
aI1000
aI1000
aI1000
aI1000
aI1000
aI1000
aI1000
aI1000
aI1000
aI1000
aF1.0
aI-1
aF0.0037112768276889745
aF0.01330094225428949
aF0.6077885783796799
aF0.01209118639124014
aF0.0033256636393730592
aF0.004092928389443664
aF0.002373633438105948
aF0.01142951745296588
aF0.03492375766468194
aF0.07168595396331691
aF0.1212820704709291
aF0.18250571318247566
aF0.25802840695387486
aF0.3445238399004194
aF0.03802337164061284
aF0.19101817390909992
aF8.885607239022526e-06
aF0.00543993925506595
aF-0.004833322302568723
aF1.3014031458690403
aF0.02609593171726484
aF0.00713202793850841
aF0.008778570630792081
aF0.0050820705964669585
aF0.0247569392251955
aF0.07576363205590632
aF0.15600260560048126
aF0.26344583283029227
aF0.3953113545215794
aF0.5599265841454455
aF0.7481708894072595
aF0.08165778052310527
aF0.40919183282717847
aF1.9270844986620937e-05
aF0.016616066357081252
aF-0.008290350594536583
aF1.8235884934812758
aF0.038059359438272676
aF0.0103963076466064
aF0.012773026633533982
aF0.007412447719951192
aF0.03620699243613827
aF0.11059208393204475
aF0.22736771949403872
aF0.38333205452203883
aF0.5759334780365966
aF0.8161562767799155
aF1.0910898067060146
aF0.11895946895014761
aF0.5973690092549305
aF2.941696360240038e-05
ag190
ag190
aF3.4657078366314632e-06
aF6.197551507779036e-05
aF0.0008121597160407227
aF1.9460211560193275e-08
aF1.9660372952382185e-09
aF2.826077030813656e-09
aF9.080064886370305e-10
aF1.6005873365174817e-08
aF1.4407385572000516e-07
aF6.38371066658137e-07
aF1.7895178095605883e-06
aF4.350798165619795e-06
aF8.881938902692019e-06
aF1.3832434055414125e-05
aF2.3431593674966532e-07
aF5.770254970093378e-06
aF2.634173929699743e-15
aF2.0034758605997696e-05
aF0.00029264215395223347
aF0.0017410120085699686
aF9.263012353974362e-08
aF9.225700853292056e-09
aF1.3210492821833757e-08
aF4.17691486075278e-09
aF7.628540208622196e-08
aF6.916170590722364e-07
aF3.1008209239048893e-06
aF8.681851816876264e-06
aF2.0702973184158116e-05
aF4.122735030997416e-05
aF6.653166157404588e-05
aF1.0895081044057477e-06
aF2.6655668936264506e-05
aF4.827762536059153e-15
aF5.417552210302491e-05
aF0.0003743937227694553
aF0.0037332082016747975
aF1.974269801851768e-07
aF1.965032732614065e-08
aF2.8188071815756398e-08
aF8.941303991240491e-09
aF1.6450863581840358e-07
aF1.475216455183999e-06
aF6.635199228834402e-06
aF1.8332994682918778e-05
aF4.405103151438704e-05
aF8.819556274202581e-05
aF0.0001422722319325457
aF2.3292406544484535e-06
aF5.741061303978724e-05
aF1.1232667028704762e-14
ag190
ag190
aF0.0037112768276889745
aF0.01330094225428949
aF0.6077885783796799
aF0.01209118639124014
aF0.0033256636393730592
aF0.004092928389443664
aF0.002373633438105948
aF0.01142951745296588
aF0.03492375766468194
aF0.07168595396331691
aF0.1212820704709291
aF0.18250571318247566
aF0.25802840695387486
aF0.3445238399004194
aF0.03802337164061284
aF0.19101817390909992
aF8.885607239022526e-06
aF0.00543993925506595
aF-0.004833322302568723
aF1.3014031458690403
aF0.02609593171726484
aF0.00713202793850841
aF0.008778570630792081
aF0.0050820705964669585
aF0.0247569392251955
aF0.07576363205590632
aF0.15600260560048126
aF0.26344583283029227
aF0.3953113545215794
aF0.5599265841454455
aF0.7481708894072595
aF0.08165778052310527
aF0.40919183282717847
aF1.9270844986620937e-05
aF0.016616066357081252
aF-0.008290350594536583
aF1.8235884934812758
aF0.038059359438272676
aF0.0103963076466064
aF0.012773026633533982
aF0.007412447719951192
aF0.03620699243613827
aF0.11059208393204475
aF0.22736771949403872
aF0.38333205452203883
aF0.5759334780365966
aF0.8161562767799155
aF1.0910898067060146
aF0.11895946895014761
aF0.5973690092549305
aF2.941696360240038e-05
ag190
ag190
aF0.0037112768276889745
aF0.01330094225428949
aF0.6077885783796799
aF0.01209118639124014
aF0.0033256636393730592
aF0.004092928389443664
aF0.002373633438105948
aF0.01142951745296588
aF0.03492375766468194
aF0.07168595396331691
aF0.1212820704709291
aF0.18250571318247566
aF0.25802840695387486
aF0.3445238399004194
aF0.03802337164061284
aF0.19101817390909992
aF8.885607239022526e-06
aF0.00543993925506595
aF-0.004833322302568723
aF1.3014031458690403
aF0.02609593171726484
aF0.00713202793850841
aF0.008778570630792081
aF0.0050820705964669585
aF0.0247569392251955
aF0.07576363205590632
aF0.15600260560048126
aF0.26344583283029227
aF0.3953113545215794
aF0.5599265841454455
aF0.7481708894072595
aF0.08165778052310527
aF0.40919183282717847
aF1.9270844986620937e-05
aF0.016616066357081252
aF-0.008290350594536583
aF1.8235884934812758
aF0.038059359438272676
aF0.0103963076466064
aF0.012773026633533982
aF0.007412447719951192
aF0.03620699243613827
aF0.11059208393204475
aF0.22736771949403872
aF0.38333205452203883
aF0.5759334780365966
aF0.8161562767799155
aF1.0910898067060146
aF0.11895946895014761
aF0.5973690092549305
aF2.941696360240038e-05
ag190
ag190
aF0.003706808130808416
aF0.013278531284429879
aF0.6067905320295434
aF0.012071373806423305
aF0.0033197289240582475
aF0.00408571865682228
aF0.0023694673437365432
aF0.011410606054383182
aF0.034867186088645745
aF0.07157137103885179
aF0.12108607185222035
aF0.18221393691152285
aF0.25761924081981236
aF0.3439805407074214
aF0.03795686854795865
aF0.1906825859144281
aF8.86977989518128e-06
aF0.00542818513605259
aF-0.00482821889115429
aF1.2983076723658789
aF0.026033894407421557
aF0.007113457840152144
aF0.008756267386845937
aF0.005069162755347766
aF0.024697012843236693
aF0.07558398348210808
aF0.15564008909403693
aF0.2628246546795045
aF0.3943875935866952
aF0.5586342674601463
aF0.7464531469826818
aF0.08145350069672366
aF0.4081619071679117
aF1.9222315293956437e-05
aF0.016604817954414687
aF-0.008282005375227362
aF1.8209942696727726
aF0.038005231604482555
aF0.010380108498523832
aF0.012753397013595742
aF0.007401102653488863
aF0.03615498108811876
aF0.11043684558476377
aF0.22705388545401295
aF0.38279827041750253
aF0.5751387601503584
aF0.8150399129223046
aF1.0896062909886195
aF0.11877903422860611
aF0.5964596664276748
aF2.937202457690801e-05
ag190
ag190
aF0.0037112768276889745
aF0.01330094225428949
aF0.6077885783796799
aF0.01209118639124014
aF0.0033256636393730592
aF0.004092928389443664
aF0.002373633438105948
aF0.01142951745296588
aF0.03492375766468194
aF0.07168595396331691
aF0.1212820704709291
aF0.18250571318247566
aF0.25802840695387486
aF0.3445238399004194
aF0.03802337164061284
aF0.19101817390909992
aF8.885607239022526e-06
aF0.00543993925506595
aF-0.004833322302568723
aF1.3014031458690403
aF0.02609593171726484
aF0.00713202793850841
aF0.008778570630792081
aF0.0050820705964669585
aF0.0247569392251955
aF0.07576363205590632
aF0.15600260560048126
aF0.26344583283029227
aF0.3953113545215794
aF0.5599265841454455
aF0.7481708894072595
aF0.08165778052310527
aF0.40919183282717847
aF1.9270844986620937e-05
aF0.016616066357081252
aF-0.008290350594536583
aF1.8235884934812758
aF0.038059359438272676
aF0.0103963076466064
aF0.012773026633533982
aF0.007412447719951192
aF0.03620699243613827
aF0.11059208393204475
aF0.22736771949403872
aF0.38333205452203883
aF0.5759334780365966
aF0.8161562767799155
aF1.0910898067060146
aF0.11895946895014761
aF0.5973690092549305
aF2.941696360240038e-05
ag190
ag190
aF0.0037039985272848946
aF0.01330094225428949
aF0.6061344889558608
aF0.01206656026771496
aF0.003318646426637452
aF0.004083912925880095
aF0.002368705044988888
aF0.011407336079830268
aF0.03485523589601337
aF0.0715465153154087
aF0.1210443136651614
aF0.18214680798484212
aF0.2575299873488375
aF0.3438316263612714
aF0.037939740601804654
aF0.19061673489697004
aF8.867659551923185e-06
aF0.005400772307532045
aF-0.004833322302568723
aF1.2988674925965153
aF0.026046826490832446
aF0.007119001910741478
aF0.008760673219299998
aF0.0050729695702813465
aF0.024713374163086572
aF0.07562706381577715
aF0.1557195021964736
aF0.26297404844902733
aF0.3946049843422325
aF0.5588994564279128
aF0.7468139347025868
aF0.08149936607120273
aF0.4084176725223486
aF1.9232158194387374e-05
aF0.016604104382446735
aF-0.008290350594536583
aF1.8184202370922766
aF0.037987027596906336
aF0.010376030251267805
aF0.012746072802641707
aF0.0073982538889423655
aF0.03614188211872157
aF0.11039744945646798
aF0.2269547089991548
aF0.38263482646149427
aF0.5748747445269784
aF0.8146811085970301
aF1.0890916084339832
aF0.11871438559039944
aF0.59617119872293
aF2.936073022623066e-05
ag190
ag190
aF0.0037112768276889745
aF0.01330094225428949
aF0.6077885783796799
aF0.01209118639124014
aF0.0033256636393730592
aF0.004092928389443664
aF0.002373633438105948
aF0.01142951745296588
aF0.03492375766468194
aF0.07168595396331691
aF0.1212820704709291
aF0.18250571318247566
aF0.25802840695387486
aF0.3445238399004194
aF0.03802337164061284
aF0.19101817390909992
aF8.885607239022526e-06
aF0.00543993925506595
aF-0.004833322302568723
aF1.3014031458690403
aF0.02609593171726484
aF0.00713202793850841
aF0.008778570630792081
aF0.0050820705964669585
aF0.0247569392251955
aF0.07576363205590632
aF0.15600260560048126
aF0.26344583283029227
aF0.3953113545215794
aF0.5599265841454455
aF0.7481708894072595
aF0.08165778052310527
aF0.40919183282717847
aF1.9270844986620937e-05
aF0.016616066357081252
aF-0.008290350594536583
aF1.8235884934812758
aF0.038059359438272676
aF0.0103963076466064
aF0.012773026633533982
aF0.007412447719951192
aF0.03620699243613827
aF0.11059208393204475
aF0.22736771949403872
aF0.38333205452203883
aF0.5759334780365966
aF0.8161562767799155
aF1.0910898067060146
aF0.11895946895014761
aF0.5973690092549305
aF2.941696360240038e-05
ag190
ag190
aF0.0037111621820654144
aF0.01330094225428949
aF0.6077649166469007
aF0.012090932816861763
aF0.003325601709521762
aF0.004092848323409901
aF0.0023735853702585236
aF0.011429279040460157
aF0.03492306029344077
aF0.07168441149026528
aF0.12127945210722346
aF0.1825019965736328
aF0.25802312118839676
aF0.3445168966183179
aF0.038022588516422824
aF0.1910142828699156
aF8.885247276553018e-06
aF0.005439747801520848
aF-0.004833322302568723
aF1.3013622606257755
aF0.02609536688780097
aF0.007131892471357978
aF0.008778395896239655
aF0.005081964204025051
aF0.02475641025691435
aF0.07576205778290332
aF0.15599916363366786
aF0.2634399603707864
aF0.39530309274220826
aF0.5599148616861921
aF0.7481555016893885
aF0.08165604339609321
aF0.4091833013040372
aF1.927029569759305e-05
aF0.016616337813515993
aF-0.008290350594536583
aF1.8235406283657825
aF0.038058542691895327
aF0.01039610951902328
aF0.01277277229532783
aF0.007412292831674098
aF0.0362062173813624
aF0.11058981389804037
aF0.2273627148323223
aF0.3833235941397407
aF0.5759215740298242
aF0.8161391588248388
aF1.091067392509335
aF0.11895694212423043
aF0.597356702433111
aF2.9416351557044144e-05
ag190
ag190
aF0.0037112768276889745
aF0.01330094225428949
aF0.6077885783796799
aF0.01209118639124014
aF0.0033256636393730592
aF0.004092928389443664
aF0.002373633438105948
aF0.01142951745296588
aF0.03492375766468194
aF0.07168595396331691
aF0.1212820704709291
aF0.18250571318247566
aF0.25802840695387486
aF0.3445238399004194
aF0.03802337164061284
aF0.19101817390909992
aF8.885607239022526e-06
aF0.00543993925506595
aF-0.004833322302568723
aF1.3014031458690403
aF0.02609593171726484
aF0.00713202793850841
aF0.008778570630792081
aF0.0050820705964669585
aF0.0247569392251955
aF0.07576363205590632
aF0.15600260560048126
aF0.26344583283029227
aF0.3953113545215794
aF0.5599265841454455
aF0.7481708894072595
aF0.08165778052310527
aF0.40919183282717847
aF1.9270844986620937e-05
aF0.016616066357081252
aF-0.008290350594536583
aF1.8235884934812758
aF0.038059359438272676
aF0.0103963076466064
aF0.012773026633533982
aF0.007412447719951192
aF0.03620699243613827
aF0.11059208393204475
aF0.22736771949403872
aF0.38333205452203883
aF0.5759334780365966
aF0.8161562767799155
aF1.0910898067060146
aF0.11895946895014761
aF0.5973690092549305
aF2.941696360240038e-05
ag190
ag190
aF0.0037111002494682253
aF0.01330094225428949
aF0.6077523784072605
aF0.012090557671213432
aF0.0033255256885306337
aF0.004092746250829076
aF0.002373529571458916
aF0.011428965049202227
aF0.034922115271247174
aF0.07168236310312678
aF0.1212752089144537
aF0.18249636839017047
aF0.25801503958047534
aF0.3445063479837214
aF0.03802152370353375
aF0.19100921050267533
aF8.885104269559867e-06
aF0.005439315989596693
aF-0.004833322302568723
aF1.3013394906276081
aF0.02609453903830615
aF0.007131727976101078
aF0.00877817800172454
aF0.005081840601723954
aF0.024755701635694967
aF0.07575991474201836
aF0.15599473004771092
aF0.2634304699048026
aF0.3952905597064586
aF0.5598970451187145
aF0.748132189519301
aF0.08165369150508761
aF0.40917190919746477
aF1.9269975439985517e-05
aF0.016616456240051848
aF-0.008290350594536583
aF1.8234849984509016
aF0.038057331263731856
aF0.010395867617562542
aF0.012772449993758676
aF0.0074121138713918394
aF0.036205186808810456
aF0.110586728780239
aF0.22735626813254323
aF0.38330991788865865
aF0.5759035109285966
aF0.816113067591997
aF1.091033235333289
aF0.11895351297511689
aF0.5973405075171743
aF2.9415585052482706e-05
ag190
ag190
aF0.0037112768276889745
aF0.01330094225428949
aF0.6077885783796799
aF0.01209118639124014
aF0.0033256636393730592
aF0.004092928389443664
aF0.002373633438105948
aF0.01142951745296588
aF0.03492375766468194
aF0.07168595396331691
aF0.1212820704709291
aF0.18250571318247566
aF0.25802840695387486
aF0.3445238399004194
aF0.03802337164061284
aF0.19101817390909992
aF8.885607239022526e-06
aF0.00543993925506595
aF-0.004833322302568723
aF1.3014031458690403
aF0.02609593171726484
aF0.00713202793850841
aF0.008778570630792081
aF0.0050820705964669585
aF0.0247569392251955
aF0.07576363205590632
aF0.15600260560048126
aF0.26344583283029227
aF0.3953113545215794
aF0.5599265841454455
aF0.7481708894072595
aF0.08165778052310527
aF0.40919183282717847
aF1.9270844986620937e-05
aF0.016616066357081252
aF-0.008290350594536583
aF1.8235884934812758
aF0.038059359438272676
aF0.0103963076466064
aF0.012773026633533982
aF0.007412447719951192
aF0.03620699243613827
aF0.11059208393204475
aF0.22736771949403872
aF0.38333205452203883
aF0.5759334780365966
aF0.8161562767799155
aF1.0910898067060146
aF0.11895946895014761
aF0.5973690092549305
aF2.941696360240038e-05
ag190
ag190
aF0.0037107145062922073
aF0.01330094225428949
aF0.607719970842777
aF0.012090146850463801
aF0.003325403415060938
aF0.004092592870249758
aF0.002373419748410292
aF0.011428553112211614
aF0.0349209204011518
aF0.07167943835855896
aF0.1212717030859478
aF0.18249138123746486
aF0.2580075356890857
aF0.3444960620670416
aF0.03801999864444027
aF0.19100175321367976
aF8.884493367945002e-06
aF0.005439039157364004
aF-0.004833322302568723
aF1.3012225885403237
aF0.026093607775314786
aF0.0071314601611695855
aF0.0087778400659435
aF0.0050815962800801855
aF0.024754814894849576
aF0.07575724491193211
aF0.15598796966664352
aF0.26342255380109225
aF0.3952795952094219
aF0.559880412093175
aF0.7481092052088391
aF0.08165029585191079
aF0.4091559074832644
aF1.9268459520759727e-05
aF0.016618780071236676
aF-0.008290350594536583
aF1.8234008414052116
aF0.03805601016251452
aF0.010395477996693119
aF0.012771964436580277
aF0.0074117572501065055
aF0.036203870696740435
aF0.11058287847085838
aF0.2273464242695613
aF0.3832985187154025
aF0.5758878334324232
aF0.8160886862627158
aF1.090999928551676
aF0.11894859541157426
aF0.5973172028229975
aF2.9414364693051498e-05
ag190
ag190
aF0.0037112768276889745
aF0.01330094225428949
aF0.6077885783796799
aF0.01209118639124014
aF0.0033256636393730592
aF0.004092928389443664
aF0.002373633438105948
aF0.01142951745296588
aF0.03492375766468194
aF0.07168595396331691
aF0.1212820704709291
aF0.18250571318247566
aF0.25802840695387486
aF0.3445238399004194
aF0.03802337164061284
aF0.19101817390909992
aF8.885607239022526e-06
aF0.00543993925506595
aF-0.004833322302568723
aF1.3014031458690403
aF0.02609593171726484
aF0.00713202793850841
aF0.008778570630792081
aF0.0050820705964669585
aF0.0247569392251955
aF0.07576363205590632
aF0.15600260560048126
aF0.26344583283029227
aF0.3953113545215794
aF0.5599265841454455
aF0.7481708894072595
aF0.08165778052310527
aF0.40919183282717847
aF1.9270844986620937e-05
aF0.016616066357081252
aF-0.008290350594536583
aF1.8235884934812758
aF0.038059359438272676
aF0.0103963076466064
aF0.012773026633533982
aF0.007412447719951192
aF0.03620699243613827
aF0.11059208393204475
aF0.22736771949403872
aF0.38333205452203883
aF0.5759334780365966
aF0.8161562767799155
aF1.0910898067060146
aF0.11895946895014761
aF0.5973690092549305
aF2.941696360240038e-05
ag190
ag190
aF0.003704383502308768
aF0.01330094225428949
aF0.6074124708354759
aF0.012085512126786508
aF0.0033241678022518863
aF0.004090960841325963
aF0.00237234368670472
aF0.011424109047707668
aF0.03490800444141633
aF0.07164814947102749
aF0.12122461351306368
aF0.1824293654601637
aF0.2579162829747633
aF0.34436479013960264
aF0.03800342987971269
aF0.19092338140607232
aF8.881542793503827e-06
aF0.005428802178982316
aF-0.004833322302568723
aF1.3007292375971387
aF0.026083206444866575
aF0.007128787299115287
aF0.008774294233402972
aF0.0050792053704239535
aF0.024745104357247798
aF0.0757282403195499
aF0.155917146945241
aF0.2633167058462271
aF0.39514297103587065
aF0.5596783766678353
aF0.7478156820587746
aF0.08161340500007325
aF0.4089854729235842
aF1.9260195106184107e-05
aF0.01662765732741925
aF-0.008290350594536583
aF1.8225257085543083
aF0.03804109109110138
aF0.010391566956076018
aF0.012766823091888532
aF0.007408267815900363
aF0.036189576021481804
aF0.11054084913166612
aF0.22724354939841784
aF0.38314566339343203
aF0.5756909630327615
aF0.8157941025489314
aF1.0905728824219152
aF0.11889500168912227
aF0.5970708132316944
aF2.940182914034673e-05
ag190
ag190
aF0.0037112768276889745
aF0.01330094225428949
aF0.6077885783796799
aF0.01209118639124014
aF0.0033256636393730592
aF0.004092928389443664
aF0.002373633438105948
aF0.01142951745296588
aF0.03492375766468194
aF0.07168595396331691
aF0.1212820704709291
aF0.18250571318247566
aF0.25802840695387486
aF0.3445238399004194
aF0.03802337164061284
aF0.19101817390909992
aF8.885607239022526e-06
aF0.00543993925506595
aF-0.004833322302568723
aF1.3014031458690403
aF0.02609593171726484
aF0.00713202793850841
aF0.008778570630792081
aF0.0050820705964669585
aF0.0247569392251955
aF0.07576363205590632
aF0.15600260560048126
aF0.26344583283029227
aF0.3953113545215794
aF0.5599265841454455
aF0.7481708894072595
aF0.08165778052310527
aF0.40919183282717847
aF1.9270844986620937e-05
aF0.016616066357081252
aF-0.008290350594536583
aF1.8235884934812758
aF0.038059359438272676
aF0.0103963076466064
aF0.012773026633533982
aF0.007412447719951192
aF0.03620699243613827
aF0.11059208393204475
aF0.22736771949403872
aF0.38333205452203883
aF0.5759334780365966
aF0.8161562767799155
aF1.0910898067060146
aF0.11895946895014761
aF0.5973690092549305
aF2.941696360240038e-05
ag190
ag190
aF0.003703828377933579
aF0.013274263181114394
aF0.6065229523427903
aF0.012066105852976136
aF0.003318593414485292
aF0.004084311336584492
aF0.002368660518788267
aF0.011405425654956851
aF0.03485113288797792
aF0.07153788864959433
aF0.12102832143022213
aF0.18212979303341287
aF0.25749536960191266
aF0.34381473492375914
aF0.03794429318741427
aF0.1906133803811204
aF8.866736827598093e-06
aF0.005427112967594459
aF-0.00482169738176085
aF1.2982430412686892
aF0.026032767282905676
aF0.007113949018498168
aF0.008756280741465615
aF0.0050692485854807075
aF0.024696594009517816
aF0.07558081071807979
aF0.15563012250265681
aF0.26281636711540485
aF0.3943715531627056
aF0.5585965447036134
aF0.7463975155346704
aF0.08145227916469562
aF0.408155079110529
aF1.922243831249437e-05
aF0.016581358274671883
aF-0.00827360547143517
aF1.81969252506036
aF0.037977603427653245
aF0.010373360564373964
aF0.012744940449776136
aF0.007396212974643965
aF0.03612849781429184
aF0.11035492955772241
aF0.22688243779172584
aF0.38250945727081914
aF0.574708395933469
aF0.8144107793822831
aF1.0887740555679497
aF0.11869901216880706
aF0.5960494322618559
aF2.9352450656133636e-05
ag190
ag190
aF0.003711276827688974
aF0.01330094225428949
aF0.6136776111998266
aF0.01210953161891315
aF0.003321402103516885
aF0.004092229661036158
aF0.0023737810481406353
aF0.011444866995564953
aF0.034937660437854706
aF0.071728656315871
aF0.12146790440690396
aF0.18264804094844542
aF0.2583433077880105
aF0.3447744007966207
aF0.03805507702401706
aF0.19059217242047408
aF8.89908306341909e-06
aF0.004703768477316093
aF0.006330926608890458
aF1.3003792820136268
aF0.02612694090121764
aF0.007121670002688972
aF0.008774877068087767
aF0.0050809557427302
aF0.02477533883205369
aF0.07579173025690013
aF0.1560468468164915
aF0.26383927197173457
aF0.39541379377093594
aF0.5605654106228903
aF0.7482694903123495
aF0.0816855369590477
aF0.4081105276951518
aF1.9211103329275562e-05
aF0.01806605974821306
aF-0.008290350594536583
aF1.83034490869724
aF0.03810992005353147
aF0.010376627354959247
aF0.012771416795091445
aF0.007411186083851237
aF0.0362332907763826
aF0.11061376538620159
aF0.22738013204635807
aF0.383806678959882
aF0.5760864249759409
aF0.8168639950948066
aF1.0910655056033558
aF0.11896789005075609
aF0.5957753088465926
aF2.9395276701165953e-05
ag190
ag190
aF0.0029399968683990656
aF0.01330094225428949
aF0.6098194092065087
aF0.012080095250575167
aF0.0033236505261547804
aF0.004086894382400874
aF0.0023745741175549063
aF0.011408931792436433
aF0.0349465767487153
aF0.07176554848466905
aF0.12148360907562718
aF0.18232295867245338
aF0.25843012452896014
aF0.34443134915038376
aF0.0379363987091347
aF0.19091124743114019
aF8.886446969830635e-06
aF0.005082175955337028
aF-0.0056557422235506034
aF1.300158707639754
aF0.026077457520616642
aF0.007128847420556624
aF0.008766963677495876
aF0.005087510713963985
aF0.024714529214643486
aF0.07580814458230296
aF0.15620584693439105
aF0.2639071548051787
aF0.3950154966026741
aF0.5610400841735563
aF0.7481412675474622
aF0.08153614164898872
aF0.4090014929840538
aF1.9323301058679506e-05
aF0.01713666697763268
aF-0.008290350594536583
aF1.8200114394831128
aF0.03803787981318835
aF0.010394390044626561
aF0.012758014247340133
aF0.007419669610354544
aF0.036153352949167036
aF0.11067750718445916
aF0.22772655691240434
aF0.3841115823319213
aF0.5756472826831225
aF0.8177511866059713
aF1.0912337952981253
aF0.11875579124406391
aF0.5972299293333675
aF2.9419695921390007e-05
ag190
ag190
aF0.0029399968683990656
aF0.013621134340684956
aF0.6177119676085768
aF0.012384383794448194
aF0.0034114535831627894
aF0.004191939657502066
aF0.0024371167148758083
aF0.011683426113236391
aF0.035673078297164366
aF0.072962479696858
aF0.12426986021797336
aF0.18601715106961447
aF0.2640817431686152
aF0.3522238141884146
aF0.03890500275294581
aF0.19591202151612935
aF9.07771484213092e-06
aF0.01019114682198155
aF0.00621886951922968
aF1.3531589875664554
aF0.026625391686830854
aF0.007285395258594612
aF0.008958377945962995
aF0.005203050937249329
aF0.02519771717490847
aF0.07711971227781277
aF0.1582569092141658
aF0.2691546087449162
aF0.4016433705335837
aF0.5707996792813691
aF0.7615125113611648
aF0.08331600419689268
aF0.41790607528588464
aF1.9722980038639474e-05
aF0.018031760837220516
aF-0.008290350594536583
aF1.9018015439416356
aF0.038854579921256946
aF0.010633351357589088
aF0.013044361509541458
aF0.007588263152859937
aF0.03687999254601585
aF0.1126020771477432
aF0.23067688773706288
aF0.391564523551811
aF0.5853737930878291
aF0.8321404771228389
aF1.1112604384374927
aF0.12140088542395129
aF0.6103878452748069
aF3.0106039101635893e-05
ag190
ag190
aF0.0027892382195810472
aF0.01330094225428949
aF0.6059688565617901
aF0.011852653933290684
aF0.003216109616051844
aF0.003981002624290734
aF0.002308980842573968
aF0.011170857706426725
aF0.03419089088738587
aF0.07019604530460402
aF0.11902818934523249
aF0.17890974179505825
aF0.2536461355125966
aF0.3379803728748353
aF0.03704145977813962
aF0.18577644569991777
aF8.69364629675939e-06
aF0.007187881822079297
aF-0.005543685133889826
aF1.2350467296450869
aF0.025691189810124766
aF0.006920916528428021
aF0.008558119080600503
aF0.0049627477901924445
aF0.024287101231378023
aF0.07440647019483733
aF0.1532399047736424
aF0.25945896071533653
aF0.38912694956442495
aF0.5523196055247647
aF0.7371944230897034
aF0.07982899787658534
aF0.3993310625040078
aF1.884529132109026e-05
aF0.015908308943069962
aF0.0030116178478420425
aF1.708899283262863
aF0.037447941862404244
aF0.01007980120907011
aF0.012455086301149198
aF0.007233103574431387
aF0.0354988454903077
aF0.10858276734099968
aF0.22336195167344447
aF0.37742037759275415
aF0.5668786615142598
aF0.8044940317731774
aF1.0741457401287877
aF0.1161827521317362
aF0.5827176619920641
aF2.8653458791594845e-05
ag190
ag190
aF0.003711276827688974
aF0.01330094225428949
aF0.6136000356924308
aF0.012100292369141697
aF0.0033293041650293443
aF0.004098735635886277
aF0.0023759794577751844
aF0.011449419628750014
aF0.03495576353476837
aF0.07175720613504201
aF0.12140528161329996
aF0.18244717319496634
aF0.25831760086940475
aF0.3448411705218774
aF0.03803688000643024
aF0.1911796265996646
aF8.893067398311103e-06
aF0.005439939255065949
aF-0.004833322302568723
aF1.309225736146997
aF0.02612400156011889
aF0.007138810481587258
aF0.008792509537304571
aF0.005087393538281632
aF0.02479681322165971
aF0.07584023130992053
aF0.15615962588747226
aF0.26374320201442325
aF0.3951646433176203
aF0.560590630082248
aF0.7489527832759394
aF0.08170665999380156
aF0.4096485721691145
aF1.9293799676153177e-05
aF0.015157539775015192
aF-0.008290350594536583
aF1.8331359309986608
aF0.038097241340133106
aF0.010405877635112129
aF0.012793694653105413
aF0.007420362411265463
aF0.036265168202710606
aF0.11069547454264181
aF0.22757413492662115
aF0.3837602254450074
aF0.5757525618339401
aF0.8171891426471686
aF1.0921413821367063
aF0.1190197012551758
aF0.598081887254231
aF2.944075705388472e-05
ag190
ag190
aF0.003711276827688974
aF0.01330094225428949
aF0.6088176848063898
aF0.012084937121955765
aF0.0033177393884514382
aF0.0040890862856919775
aF0.0023717848817964484
aF0.011420089787489615
aF0.034945121670935615
aF0.0717073826818279
aF0.12123214470381835
aF0.18242918942249592
aF0.2579073908029693
aF0.3445477891944135
aF0.03799874793072366
aF0.1910556510235039
aF8.881206591393488e-06
aF0.005439939255065949
aF-0.004833322302568723
aF1.3004988720295567
aF0.026083786780409096
aF0.00711333418347086
aF0.008770114318391618
aF0.005077444774414799
aF0.02473948012532049
aF0.07581596958849968
aF0.15606728668580475
aF0.26336316974023477
aF0.3950545735286102
aF0.5596793874231742
aF0.7483121239653554
aF0.08160472983192732
aF0.40931642711496385
aF1.9258414518549515e-05
aF0.01806605974821306
aF-0.008290350594536583
aF1.8033943114737523
aF0.038039600041889846
aF0.010368924966595095
aF0.012760143441275162
aF0.007406961021886129
aF0.036180088598602965
aF0.11065894532264242
aF0.227460088231521
aF0.38318768956420823
aF0.575575860440888
aF0.8158082576427999
aF1.0912217903659134
aF0.11889053666771673
aF0.597530997663249
aF2.940268668570805e-05
ag190
ag190
aF0.003711276827688974
aF0.01330094225428949
aF0.6066546096346519
aF0.012111558401031796
aF0.0033245851998431344
aF0.004094886274924139
aF0.0023740764245767975
aF0.01142321671012266
aF0.03495818812614025
aF0.07179105159321374
aF0.12140848137305206
aF0.1825669422440767
aF0.25812808747355054
aF0.34479219065979133
aF0.038068945384370716
aF0.19107851974296947
aF8.891246350189226e-06
aF0.005439939255065949
aF-0.004833322302568723
aF1.304470117961624
aF0.026142981784463525
aF0.007128078386605094
aF0.008780801989354454
aF0.005083558606257692
aF0.02474082704697827
aF0.07584928437411093
aF0.15624624007679505
aF0.26369342746637425
aF0.3954284418756918
aF0.5600571770803736
aF0.7488738087767679
aF0.0817952022277876
aF0.40939928162930955
aF1.9271190011196277e-05
aF0.016616066357081256
aF-0.008290350594536583
aF1.8202256566893396
aF0.038122530120795715
aF0.010389290986680772
aF0.012778039604692775
aF0.007415201934166226
aF0.036189694803421026
aF0.11071272582170423
aF0.22770259837930903
aF0.3837068489434554
aF0.5762270128367025
aF0.8163126617099644
aF1.0919860619744175
aF0.1191453862846427
aF0.5976086858878427
aF2.9442598993401958e-05
ag190
ag190
aF0.003711276827688974
aF0.01330094225428949
aF0.6090658338505873
aF0.012087860142457822
aF0.003325218573168435
aF0.004092433819160887
aF0.0023723112413017527
aF0.011435659522494843
aF0.03493896809046323
aF0.07169403980646741
aF0.12121398941265696
aF0.1825459012994753
aF0.25789570251740157
aF0.344478853914579
aF0.03800187868107291
aF0.1909746986738659
aF8.883323645564331e-06
aF0.00362076733390558
aF-0.004833322302568723
aF1.3066298042481028
aF0.026092377354897577
aF0.007127686688650059
aF0.00877820351593917
aF0.0050789646919382
aF0.024771425424865677
aF0.07581260872715295
aF0.15604543062675968
aF0.2633089422842161
aF0.3953711543430895
aF0.559617028754214
aF0.7483237612494077
aF0.08160293274426214
aF0.40910876812734603
aF1.928080859077578e-05
aF0.01806605974821306
aF-0.008290350594536583
aF1.8209803061953767
aF0.038051627788446556
aF0.01038957510179773
aF0.012772081768395272
aF0.007408039675059869
aF0.03623192116162795
aF0.11065346216999875
aF0.22742428557414296
aF0.38310004422704225
aF0.5759907879902397
aF0.8157775891655842
aF1.0912339678107514
aF0.11888205852996198
aF0.5971791192475311
aF2.9398826311618242e-05
ag190
ag190
aF0.003711276827688974
aF0.01330094225428949
aF0.6163222813551728
aF0.012085191272561116
aF0.0033268635179759727
aF0.004096445482632827
aF0.0023732470647075243
aF0.01143677635621649
aF0.03496986779616172
aF0.07176648201672492
aF0.12134559142045381
aF0.18253111661501073
aF0.25809501337941726
aF0.3445782933542087
aF0.038021017890250614
aF0.19128497861296725
aF8.913272868490669e-06
aF0.005439939255065949
aF-0.004833322302568723
aF1.3084809952219894
aF0.026087222400493524
aF0.007133205661168666
aF0.008787598219079765
aF0.0050796796921084375
aF0.024771444456323045
aF0.07587424915658243
aF0.15619635874462245
aF0.26356943413025347
aF0.39537566339543695
aF0.5600530553854738
aF0.748380637721053
aF0.08164638961020491
aF0.40986962784802294
aF1.9293116458145912e-05
aF0.01806605974821306
aF-0.008290350594536583
aF1.8186477740152922
aF0.038045439371059385
aF0.010397038511042978
aF0.012785417041390662
aF0.007409604562873282
aF0.03623335161270794
aF0.11073410771874795
aF0.22763614797045564
aF0.3835255062909852
aF0.5759619440216056
aF0.8163605136405027
aF1.09136570995645
aF0.11894424122152272
aF0.5983161885508321
aF2.9455230495627964e-05
ag190
ag190
aF0.003711276827688974
aF0.01330094225428949
aF0.6075134407230176
aF0.012098330918882334
aF0.0033209038034252574
aF0.0040927554518166084
aF0.0023688720308548948
aF0.011424262736601973
aF0.03492403938080355
aF0.07170656885129069
aF0.12132201217295713
aF0.18226978080157077
aF0.2579149923164916
aF0.34446783443066564
aF0.03807495756392867
aF0.1910565950189173
aF8.880640641741785e-06
aF0.005439939255065949
aF0.006330926608890458
aF1.3030915631557864
aF0.02612045688545969
aF0.007120121366577785
aF0.00877808010031561
aF0.005071400369855957
aF0.02474680987704911
aF0.07576328850985395
aF0.15603936226363344
aF0.2635559714043696
aF0.3946395720700052
aF0.5595759237543978
aF0.7481787124595817
aF0.08182706052192731
aF0.40926738913442884
aF1.9261304212452434e-05
aF0.016616066357081256
aF-0.008290350594536583
aF1.8302789790673253
aF0.03809290254211642
aF0.01037754072346157
aF0.01277556100807345
aF0.007396881147357802
aF0.036194127740124774
aF0.11059457293401186
aF0.227413203924023
aF0.3835101196365482
aF0.5749742646873773
aF0.8157268260702216
aF1.090923002289592
aF0.11917697214617494
aF0.597533925817157
aF2.939638720635152e-05
ag190
ag190
aF0.003711276827688974
aF0.01330094225428949
aF0.6077885783796795
aF0.012091186391240098
aF0.003325663639373056
aF0.004092928389443683
aF0.0023736334381059465
aF0.011428404112840799
aF0.03492375766468189
aF0.0716859539633168
aF0.12128207047092886
aF0.18250571318247558
aF0.2580284069538743
aF0.34452383990041696
aF0.03802337164061277
aF0.19101817390910023
aF8.885604237370839e-06
aF0.005439939255065949
aF-0.004833322302568723
aF1.3019351805236363
aF0.02609593171726492
aF0.007132027938508421
aF0.008778570630792078
aF0.00508207059646696
aF0.02475514308613513
aF0.07576363205590678
aF0.1560026056004812
aF0.26344583283029277
aF0.39531135452157884
aF0.5599265841454459
aF0.748170889407258
aF0.08165778052310536
aF0.40919183282718025
aF1.9271149827230144e-05
aF0.016616066357081256
aF-0.008290350594536583
aF1.8246582080463152
aF0.03805935943827254
aF0.01039630764660643
aF0.012773026633533977
aF0.007412447719951177
aF0.03620453041020711
aF0.11059208393204431
aF0.22736771949403867
aF0.3833320545220395
aF0.5759334780365999
aF0.8161562767799186
aF1.0910898067060166
aF0.1189594689501479
aF0.5973690092549322
aF2.9416837855921454e-05
ag190
ag190
aF0.003711276827688974
aF0.01330094225428949
aF0.6077885783796795
aF0.012091157544431446
aF0.003325663639373056
aF0.004092928389443683
aF0.0023736334381059465
aF0.011429517452965821
aF0.0349193370950348
aF0.0716793428601276
aF0.12128207047092886
aF0.18250572317531905
aF0.2580284069538743
aF0.34452383990041696
aF0.03802337164061277
aF0.19101817390910023
aF8.885621792811376e-06
aF0.005439939255065949
aF-0.004833322302568723
aF1.3014031458690474
aF0.02609570109029652
aF0.007132027938508421
aF0.008778570630792078
aF0.00508207059646696
aF0.02475693922519544
aF0.07575041843752137
aF0.15598534187475105
aF0.26344583283029277
aF0.3953113749307427
aF0.5599265841454459
aF0.748170889407258
aF0.08165778052310536
aF0.40919183282718025
aF1.927084523035201e-05
aF0.016616066357081256
aF-0.008290350594536583
aF1.8231995118649686
aF0.03805902273526101
aF0.01039630764660643
aF0.012773026633533977
aF0.007412447719951177
aF0.03620699243613814
aF0.11057386314600429
aF0.2273439977593509
aF0.3833320545220395
aF0.5759335076373209
aF0.8161562767799186
aF1.0910898067060166
aF0.1189594689501479
aF0.5973690092549322
aF2.9416934988239973e-05
ag190
ag190
aF0.003711276827688974
aF0.01330094225428949
aF0.6077885783796795
aF0.012090633322528853
aF0.003325826007628992
aF0.004093156639240865
aF0.0023736450434027044
aF0.011421233329193838
aF0.03492101601830144
aF0.07168255006702995
aF0.12128190297098741
aF0.18250260964856133
aF0.2580173952377663
aF0.3445293147148677
aF0.03802042301600285
aF0.1910638552409812
aF8.884686808775874e-06
aF0.005439939255065949
aF-0.004833322302568723
aF1.301804368852692
aF0.02609621538749871
aF0.007132368965788555
aF0.008779157521562362
aF0.005082109169627675
aF0.02475070923505086
aF0.07575978094498047
aF0.15600040617395275
aF0.2634468672061441
aF0.39532518068776534
aF0.5599129319549734
aF0.748183597579394
aF0.0816548057296008
aF0.40929967836809367
aF1.9272830326014018e-05
aF0.016616066357081256
aF-0.008290350594536583
aF1.8250193766073526
aF0.038058294374453676
aF0.010396757679735077
aF0.012773789612994682
aF0.007412485889269917
aF0.03619606523024124
aF0.11058593952619014
aF0.22736272777472227
aF0.38333278623403944
aF0.5759494653194572
aF0.8161346397966057
aF1.0910913494392875
aF0.1189528199688903
aF0.5975162064204539
aF2.9419096748698036e-05
ag190
ag190
aF0.003711276827688974
aF0.01330094225428949
aF0.6075359879479861
aF0.012092163378583676
aF0.0033253588676487185
aF0.004092292467900916
aF0.0023736278072408953
aF0.011429787796807062
aF0.03492378738251836
aF0.07169045447351689
aF0.12128942407991988
aF0.1825138831469384
aF0.25799025769987316
aF0.3445364250959934
aF0.038032340208043344
aF0.19103291394814675
aF8.884605536483066e-06
aF0.005439939255065949
aF-0.004833322302568723
aF1.3010446145539372
aF0.02609654439440127
aF0.0071313576848841724
aF0.008776755215194203
aF0.0050820399673004125
aF0.024757717970510882
aF0.07576045324867862
aF0.15600684846868365
aF0.263440703655832
aF0.39532098708817137
aF0.5598102619910142
aF0.7481578979594339
aF0.08165708094852948
aF0.40919033018596807
aF1.9269304588224286e-05
aF0.016616066357081256
aF-0.008290350594536583
aF1.8222242847770813
aF0.03806069238245382
aF0.010395210460252281
aF0.0127709522906303
aF0.007412419656017444
aF0.03620832603079606
aF0.11058815558162426
aF0.22737895847389508
aF0.38333920839521884
aF0.5759523741140055
aF0.8160075767805989
aF1.0910716004177676
aF0.11896319459630368
aF0.5974089896203268
aF2.9414805626747168e-05
ag190
ag190
aF0.0036609515942856276
aF0.013389798175230826
aF0.6081428761446774
aF0.012140687424200597
aF0.0033446743788226267
aF0.004114959479444228
aF0.0023882395118628155
aF0.011476968162297298
aF0.03505016487701445
aF0.07195598000931204
aF0.1216565026418659
aF0.18308983833349934
aF0.2588504160950653
aF0.3457200861143376
aF0.038260870432243986
aF0.1921608470084388
aF8.886590417330587e-06
aF0.0053970737797170865
aF-0.0045685440807960755
aF1.3001560866924482
aF0.026086195890656163
aF0.007147134579374404
aF0.00879389280849215
aF0.005094832652095506
aF0.024763500592765404
aF0.07573658460373847
aF0.1558165646954088
aF0.2631164674689978
aF0.3948985256163337
aF0.5594415077004137
aF0.7477890603804466
aF0.08186777681969894
aF0.4100540456849863
aF1.9343223166069674e-05
aF0.016497902320588398
aF-0.008041259033683298
aF1.818859791269639
aF0.038110225964430464
aF0.010447573387892092
aF0.012840051287524072
aF0.0074512524999970796
aF0.036273770747938014
aF0.11065209065364194
aF0.22724318156466383
aF0.38316022401119043
aF0.575955444878057
aF0.8163023623544295
aF1.0914381905604276
aF0.11965551167738228
aF0.6006897336461421
aF2.9549635281187367e-05
ag190
ag190
aF0.003780899265727421
aF0.013957130087296727
aF0.6076401659062394
aF0.012041250638621888
aF0.003306437451277938
aF0.004067797863094343
aF0.0023576934647757675
aF0.01137669554621413
aF0.034762141813883485
aF0.07139634113997441
aF0.12082630868616902
aF0.18181017377479747
aF0.2571119418775247
aF0.34304783101490044
aF0.037749627013824
aF0.18977690100344488
aF8.885175552109725e-06
aF0.0055076785316090955
aF-0.00539257251040468
aF1.3029585425766899
aF0.02613266850936778
aF0.0071249287484664164
aF0.00877010279061509
aF0.005072879007297237
aF0.024774415958903603
aF0.07585042324594382
aF0.15625969579239746
aF0.2640678113923256
aF0.3959911177269939
aF0.5606432679009067
aF0.7487610055585937
aF0.0814477719415957
aF0.4083061946614605
aF1.92091038318467e-05
aF0.01715072265464367
aF-0.008949743289849118
aF1.8320434460145971
aF0.03809019410969022
aF0.010362481197988964
aF0.012729048618194972
aF0.007382561536804319
aF0.036187987134258276
aF0.11062968710936717
aF0.22762736035278183
aF0.3841685966724493
aF0.5766732407242942
aF0.8166763170195457
aF1.0915885154311071
aF0.11843526105313869
aF0.5955043838661789
aF2.9332848157042225e-05
ag190
ag190
aF0.0037621839054385003
aF0.01319706450763426
aF0.6044330707328245
aF0.011954867532665432
aF0.0033060802499165942
aF0.004063947931760442
aF0.00236116009075827
aF0.011279530800574974
aF0.0344253459166514
aF0.07065418379862021
aF0.11937707753755537
aF0.17980952779491652
aF0.25378071500276445
aF0.339449842675849
aF0.03783707733305906
aF0.18982413852010369
aF8.854484350913904e-06
aF0.005364485355863446
aF-0.004324622957510271
aF1.3020429621683436
aF0.02609364164281645
aF0.0071339459497724205
aF0.008779032013679878
aF0.005082326428916488
aF0.02475909332994116
aF0.07576908728733243
aF0.15609597542970585
aF0.2634607095405382
aF0.395310404148729
aF0.5600515077706725
aF0.7483678792913501
aF0.08169485183330381
aF0.4090557474443562
aF1.92683370935615e-05
aF0.016472230956763995
aF-0.008377537175092598
aF1.8240145225593871
aF0.03805348011334779
aF0.010397485191449462
aF0.01277283209617096
aF0.007412632156189326
aF0.03620897677714607
aF0.11063227532832302
aF0.2274570458685987
aF0.38328503783316636
aF0.5759863676602167
aF0.8162206734446816
aF1.0911384275574734
aF0.1189732168884244
aF0.5970997465932668
aF2.9414620204313254e-05
ag190
ag190
aF0.0036503405557846078
aF0.013387697895488083
aF0.6112330291476548
aF0.01223762902157118
aF0.0033460708729236644
aF0.004124664273500592
aF0.002386737375882147
aF0.011588839131660724
aF0.035458978068012854
aF0.07279354437382717
aF0.1233348702567989
aF0.18537867059614313
aF0.26260271519402195
aF0.3499739947052506
aF0.03821864637214405
aF0.19230162775714785
aF8.91602805725499e-06
aF0.0054372973994415074
aF-0.005368872434740551
aF1.3000208281166716
aF0.026093468125158666
aF0.007128902003347086
aF0.008775703233123513
aF0.005081371758483986
aF0.024752559972943757
aF0.075744086472484
aF0.15587432151004652
aF0.26340286966350746
aF0.39523888219644054
aF0.5597380420325047
aF0.7479062316557173
aF0.08160946364070334
aF0.409252831517782
aF1.927147013970729e-05
aF0.01679999580599281
aF-0.008181980018223794
aF1.8231940482257523
aF0.03806579838011808
aF0.01039541969603024
aF0.012773177570561407
aF0.0074119505381921745
aF0.036205449732229854
aF0.11055212940305013
aF0.22726968370497597
aF0.38338301966631794
aF0.5759029811867333
aF0.8160786039653999
aF1.09109548858109
aF0.11893891613872948
aF0.5976486585164711
aF2.9419339591701643e-05
ag190
ag190
aF0.003736270508273295
aF0.013164027407144643
aF0.6017932983095257
aF0.011964905412973587
aF0.00330652194465736
aF0.004064525821619606
aF0.0023616927133414166
aF0.011290466631450162
aF0.03446916304105992
aF0.07074518591518147
aF0.11954451899699081
aF0.1800260572450506
aF0.254095319216607
aF0.3399976071214444
aF0.037838852246934375
aF0.18982782148681762
aF8.847791686607218e-06
aF0.005281737125112212
aF-0.004514381639155761
aF1.2973378251026888
aF0.026079798594797324
aF0.007130594237752497
aF0.008773614473645452
aF0.00507976765928497
aF0.024743936718388627
aF0.07574056048739013
aF0.15601299352528078
aF0.26333452705569993
aF0.39514117086452016
aF0.559688932439004
aF0.7482398481458773
aF0.08163952067604083
aF0.40877482715019586
aF1.9251225072792732e-05
aF0.016375903477233944
aF-0.008136941102215195
aF1.8190428729476924
aF0.03802115628280459
aF0.010389252269526857
aF0.012761557790031122
aF0.0074074458324876885
aF0.03617468197902849
aF0.11054664503409099
aF0.2272609688322128
aF0.382965250114441
aF0.5754958533658204
aF0.815341780382185
aF1.090593851600928
aF0.11886927345614584
aF0.5965300387007642
aF2.939216298269145e-05
ag190
ag190
aF0.003681594715217685
aF0.013420467440060358
aF0.6142929460177816
aF0.012225752252225358
aF0.0033454504122230424
aF0.004123881909090957
aF0.0023862143292972373
aF0.011577505383179865
aF0.03540888830681204
aF0.07268941209024309
aF0.12314237015467222
aF0.1851388339565511
aF0.2622700996202128
aF0.3493535246788565
aF0.03821927655022776
aF0.19229703087740121
aF8.924430160806717e-06
aF0.005599217430642572
aF-0.00517323046880498
aF1.305489247387863
aF0.02610801276481585
aF0.007132514205810691
aF0.008781728017516784
aF0.005084056233396362
aF0.024768109184210685
aF0.07578102306509255
aF0.15596880273378855
aF0.26353334287415253
aF0.3954529123740589
aF0.560149983856426
aF0.7480840542624998
aF0.08166477866986106
aF0.4095665131660283
aF1.9290053410385554e-05
aF0.016883573341310472
aF-0.008426833736543387
aF1.8287145102969988
aF0.03809944603492973
aF0.010403895831831506
aF0.012785439767420604
aF0.007417572498241073
aF0.036242182055242225
aF0.11064226677922545
aF0.22748287073522813
aF0.3837262834677365
aF0.5764159834406344
aF0.8170511593966875
aF1.0916804661549124
aF0.11904895471343267
aF0.5982681178588617
aF2.944379494375242e-05
ag190
ag190
aF0.0038342596362039953
aF0.013666560542587369
aF0.6063093245174479
aF0.0119399771562111
aF0.0032759916146874865
aF0.004035701189852935
aF0.002338831487818641
aF0.011299673090478716
aF0.03453319692412034
aF0.07099990593450531
aF0.11989037573150563
aF0.18048895579596588
aF0.2554109059500403
aF0.34086851306193733
aF0.037484537567800714
aF0.18851645290393323
aF8.848968601769828e-06
aF0.0054608309871953505
aF-0.005195270264652599
aF1.292285570161665
aF0.025810535963257775
aF0.007038893270212633
aF0.008669845234031082
aF0.005016430275148056
aF0.024501879048963567
aF0.07498586552426195
aF0.15457495419219336
aF0.2607823829046872
aF0.3914012726609467
aF0.554628998899366
aF0.7408111290939995
aF0.08064295678224138
aF0.4045267364408748
aF1.909943674438505e-05
aF0.016539286516274985
aF-0.00830434089755764
aF1.8142261231437526
aF0.03776754187314894
aF0.010298021467692445
aF0.01265909377962153
aF0.0073430755792363404
aF0.035950815416050184
aF0.10979946593613375
aF0.22595158457772466
aF0.3806655822314305
aF0.5719764564217181
aF0.8108423253513369
aF1.0837161301890372
aF0.11790070969199089
aF0.5925307060522839
aF2.9162087948048542e-05
ag190
ag190
aF0.003590000982109712
aF0.012960786966718358
aF0.6087583864642364
aF0.012227392395209034
aF0.0033727135469517632
aF0.004147034420422348
aF0.0024065037575375344
aF0.011544732523256334
aF0.03526911221706517
aF0.07227844287684268
aF0.12251761684529115
aF0.1842669061988275
aF0.2603098013709295
aF0.34770884907769645
aF0.03853119253565126
aF0.19335409980938975
aF8.915488518278778e-06
aF0.005420977636690716
aF-0.004465423390615644
aF1.310470018173763
aF0.026379885672318852
aF0.0072253825541288876
aF0.008887409748358407
aF0.005147920487499613
aF0.025010532653598
aF0.07653697270696416
aF0.15742455882568632
aF0.2660955495879972
aF0.3991852882144431
aF0.5651853245880917
aF0.7554764570434107
aF0.0826747429839005
aF0.4138588945355689
aF1.9443191287015873e-05
aF0.016693551533671747
aF-0.008267455522383461
aF1.8329807483408291
aF0.03835114855046669
aF0.010494978974483237
aF0.012887248477825257
aF0.007482198579997222
aF0.03646268028131736
aF0.11138319946691072
aF0.22878637343126662
aF0.38599976154062376
aF0.5798873000894841
aF0.8214566768470668
aF1.0984522921409852
aF0.12002252596239699
aF0.6022236788177792
aF2.9672888877229288e-05
ag190
ag190
aF0.003620555751540747
aF0.013030092555313559
aF0.6024624833103663
aF0.012013252556347432
aF0.00330928509458897
aF0.004071517210152186
aF0.0023612365119750744
aF0.011353994921772869
aF0.03465567692516103
aF0.07113010340432847
aF0.12045123597393967
aF0.1811349057351634
aF0.2561181365507785
aF0.34193703041065204
aF0.037850522759241244
aF0.18996716253304596
aF8.828156896899389e-06
aF0.005442012800073017
aF-0.0054073340085734065
aF1.3007271086170908
aF0.026082572065785604
aF0.007131775012167357
aF0.008774829325811152
aF0.005078783289933205
aF0.02474440080862134
aF0.07569302814610662
aF0.15585830371909423
aF0.26336994008319475
aF0.3950201506277293
aF0.5595112189176409
aF0.7476094804029574
aF0.08165652901829298
aF0.40898287328337596
aF1.9239292329082172e-05
aF0.01668756573540347
aF-0.008137942705609224
aF1.8211717383941746
aF0.03800793054096671
aF0.01038670539811894
aF0.012757326851246292
aF0.007401942898387996
aF0.03615977731834683
aF0.11041204895190944
aF0.2269933474137085
aF0.38290611863129054
aF0.5750799230336283
aF0.814887081071713
aF1.0894884267878107
aF0.11885132956252163
aF0.5964861358345888
aF2.9381712534083228e-05
ag190
ag190
aF0.0038013010079092973
aF0.013586812333138073
aF0.612930549496151
aF0.012162298345915855
aF0.0033407789758194777
aF0.004112975414027606
aF0.0023851353042695566
aF0.011498401605597569
aF0.035171776718551574
aF0.07219924727221991
aF0.12203998148477588
aF0.18375926698337383
aF0.25977080195992125
aF0.34690177979352876
aF0.038181200796839954
aF0.1920026796702779
aF8.939989139815152e-06
aF0.005436745000363818
aF-0.004257890685879503
aF1.3020987819176364
aF0.026110440590353765
aF0.007132566653037256
aF0.008782483509964682
aF0.005085566436773559
aF0.024770461485212465
aF0.07583713616924811
aF0.15615433725005365
aF0.26353384817275
aF0.39561602816691127
aF0.5603615173782143
aF0.7487592503451175
aF0.08166033870442106
aF0.4094135649234686
aF1.93031084740046e-05
aF0.016542193630704864
aF-0.008441019010644465
aF1.8260534958317869
aF0.03811147881270714
aF0.010406233872847202
aF0.012788954256551167
aF0.0074232885462954855
aF0.03625499033385826
aF0.1107760365918835
aF0.22774851329522441
aF0.3837648690913331
aF0.5768017319754097
aF0.8174296157071178
aF1.092727112104946
aF0.1190707763899829
aF0.5982702368239007
aF2.9453040387875604e-05
ag190
ag190
aF0.0032311735364637753
aF0.015399485116700518
aF0.6036726749724719
aF0.01199413585147048
aF0.0032906530148766855
aF0.0040451126249450445
aF0.002338147286673641
aF0.011310913342084648
aF0.034643918452463
aF0.07140827905886828
aF0.11993248865079731
aF0.18046996441629015
aF0.2565719697146343
aF0.3406279052367985
aF0.03756352891621801
aF0.18829140440638123
aF8.87805867280414e-06
aF0.005573862141763637
aF-0.0058577865450692105
aF1.2496991564114144
aF0.025866308033822415
aF0.007040958506345606
aF0.00866037255106777
aF0.0050229680999569065
aF0.02451630097110677
aF0.07514556589911774
aF0.1546686340180603
aF0.26130569765668693
aF0.39177422665882233
aF0.5562808734282059
aF0.7414416313248334
aF0.08091029515162636
aF0.403880116243849
aF1.910186913496221e-05
aF0.015202154616922522
aF-0.013520856601847422
aF1.7631488113815421
aF0.037756145880835486
aF0.010266961579389479
aF0.0126088370915222
aF0.0073278161096681695
aF0.03588808987467688
aF0.10979691119259946
aF0.2255007450112713
aF0.38053653472658544
aF0.5711887725868434
aF0.8115797623377584
aF1.0825493020899362
aF0.11795772462066209
aF0.589783211105319
aF2.914002708245966e-05
ag190
ag190
aF0.00422351481639465
aF0.010659705896224963
aF0.6175533033315351
aF0.012232674733494053
aF0.0033691634881461868
aF0.00415480754986597
aF0.002415752773876379
aF0.011591877807338705
aF0.03528830632843289
aF0.0722232455332077
aF0.12301447773306222
aF0.18513399818383944
aF0.2601116186343813
aF0.3495338449460754
aF0.038574842254777975
aF0.19449074137185415
aF8.910021133017023e-06
aF0.0052980290738946
aF-0.00339248735711726
aF1.3977653778537358
aF0.02648787411664462
aF0.007293665417883853
aF0.008996197383831329
aF0.005191037419309653
aF0.025186361758236842
aF0.07687527428211291
aF0.1583686825840593
aF0.26737851437492954
aF0.40186306776145586
aF0.5660045420829513
aF0.7601567231329404
aF0.0830137555422556
aF0.41902417637213707
aF1.9585652623443527e-05
aF0.01850378473761632
aF0.003076927804259808
aF1.941042280128925
aF0.03860739114517018
aF0.010647186189957284
aF0.01311187666858682
aF0.007596116940405743
aF0.0368236965704846
aF0.11215582801333406
aF0.23113081572804678
aF0.38921622027227726
aF0.586011926117783
aF0.8239625016041616
aF1.10764654103779
aF0.12095159899110423
aF0.6132874120170662
aF2.9984143156136186e-05
ag190
ag190
aF0.00333189519908175
aF0.016142745164730528
aF0.6014663457190158
aF0.011990522437441923
aF0.0032927267619855716
aF0.004045073858581625
aF0.0023405462859123205
aF0.011314227643910412
aF0.03462092149459992
aF0.07132321626851015
aF0.12000558531167463
aF0.18056234960626535
aF0.2562653087276736
aF0.3407133101948479
aF0.0375900844441952
aF0.18849957371317186
aF8.873605771944503e-06
aF0.005396290570142919
aF-0.005724627440297149
aF1.2605861677120025
aF0.025910554553064218
aF0.00706155825142497
aF0.008679800977438664
aF0.005034646447407751
aF0.024567818414508998
aF0.07524517348892353
aF0.1549386054013642
aF0.2617522126491612
aF0.39259731854993857
aF0.5569018767817405
aF0.7428098427840424
aF0.08105587509639575
aF0.4049324571673011
aF1.9133955706191897e-05
aF0.01498394455758253
aF-0.012881538537428955
aF1.7737223745396582
aF0.037808439456140555
aF0.010295510886555807
aF0.012635535129507504
aF0.007342590068777938
aF0.035948876298551334
aF0.10989517272195985
aF0.22586371945874303
aF0.3810366709500057
aF0.572167113332912
aF0.8121702922037427
aF1.0839653453736295
aF0.11813313541319428
aF0.5911830511829843
aF2.91888848753441e-05
ag190
ag190
aF0.004081757579964626
aF0.010554038483377305
aF0.619035666096901
aF0.012228353656594405
aF0.003366091724333704
aF0.00415383371401711
aF0.0024127469243478564
aF0.01158178162020634
aF0.03531116761356355
aF0.0722698641837008
aF0.12288041140327016
aF0.1849314577487802
aF0.2604098799438854
aF0.3491690716572619
aF0.03853331608352491
aF0.19413697037595382
aF8.913647609190557e-06
aF0.005550582477285817
aF-0.0037542719780150344
aF1.3612493796546539
aF0.02635616833329313
aF0.00723176141761713
aF0.008921357210810336
aF0.005150609258725124
aF0.025023953556315794
aF0.07651951341919652
aF0.1575065499707129
aF0.2659245045248231
aF0.39925967085018105
aF0.5641324482206334
aF0.7558793706667625
aF0.08252870099541572
aF0.4154461092032086
aF1.9470820200983772e-05
aF0.01874361478149294
aF-0.0005431590145282602
aF1.900005076433924
aF0.038426151791076925
aF0.010548566846897455
aF0.012987465175709305
aF0.007525647295536121
aF0.036590419336271475
aF0.11167575002275447
aF0.22970289553370524
aF0.3870178039272233
aF0.5819264616632916
aF0.82189890781989
aF1.1019593030290038
aF0.12022634865125024
aF0.6073390710774612
aF2.977245346746167e-05
ag190
ag190
atp399
ba(lp400
g15
(g16
(dp401
g18
g19
(g20
(I0
tp402
g22
tp403
Rp404
(I1
(I56
tp405
g29
I00
(lp406
g33
ag34
ag35
ag36
ag37
ag38
ag39
ag40
ag41
ag42
ag43
ag44
ag45
ag46
ag47
ag48
ag49
ag50
ag51
ag52
ag53
ag54
ag55
ag56
ag57
ag58
ag59
ag60
ag61
ag62
ag63
ag64
ag65
ag66
ag67
ag68
ag69
ag70
ag71
ag72
ag73
ag74
ag75
ag76
ag77
ag78
ag79
ag80
ag81
ag82
ag83
ag84
ag85
ag86
ag87
ag88
atp407
bsg90
Nstp408
Rp409
a(dp410
S'0.14.1'
p411
(dp412
S'axes'
p413
g14
sS'blocks'
p414
(lp415
(dp416
S'mgr_locs'
p417
c__builtin__
slice
p418
(I0
I56
I1
tp419
Rp420
sS'values'
p421
g111
sasstp422
bsb.