ccopy_reg
_reconstructor
p0
(cpandas.core.frame
DataFrame
p1
c__builtin__
object
p2
Ntp3
Rp4
(dp5
S'_metadata'
p6
(lp7
sS'_typ'
p8
S'dataframe'
p9
sS'_data'
p10
g0
(cpandas.core.internals
BlockManager
p11
g2
Ntp12
Rp13
((lp14
cpandas.core.indexes.base
_new_Index
p15
(cpandas.core.indexes.base
Index
p16
(dp17
S'data'
p18
cnumpy.core.multiarray
_reconstruct
p19
(cnumpy
ndarray
p20
(I0
tp21
S'b'
p22
tp23
Rp24
(I1
(I56
tp25
cnumpy
dtype
p26
(S'O8'
p27
I0
I1
tp28
Rp29
(I3
S'|'
p30
NNNI-1
I-1
I63
tp31
bI00
(lp32
S'year'
p33
aS'type'
p34
aS'procOriginal'
p35
aS'proc'
p36
aS'proc_s0'
p37
aS'cat'
p38
aS'inputWSFile'
p39
aS'nominalDataName'
p40
aS'modelWSFile'
p41
aS'model'
p42
aS'rate'
p43
aS'nominal_yield'
p44
aS'sumw2'
p45
aS'nominal_yield_COWCorr'
p46
aS'weight_electron_veto_sf_Diphoton_Photon_up_yield'
p47
aS'weight_electron_veto_sf_Diphoton_Photon_down_yield'
p48
aS'weight_electron_id_sf_SelectedElectron_up_yield'
p49
aS'weight_electron_id_sf_SelectedElectron_down_yield'
p50
aS'weight_muon_id_sfSTAT_SelectedMuon_up_yield'
p51
aS'weight_muon_id_sfSTAT_SelectedMuon_down_yield'
p52
aS'weight_muon_id_sfSYS_SelectedMuon_up_yield'
p53
aS'weight_muon_id_sfSYS_SelectedMuon_down_yield'
p54
aS'weight_muon_iso_sfSTAT_SelectedMuon_up_yield'
p55
aS'weight_muon_iso_sfSTAT_SelectedMuon_down_yield'
p56
aS'weight_muon_iso_sfSYS_SelectedMuon_up_yield'
p57
aS'weight_muon_iso_sfSYS_SelectedMuon_down_yield'
p58
aS'weight_trigger_sf_up_yield'
p59
aS'weight_trigger_sf_down_yield'
p60
aS'JER_up_yield'
p61
aS'JER_down_yield'
p62
aS'JES_up_yield'
p63
aS'JES_down_yield'
p64
aS'MET_JER_up_yield'
p65
aS'MET_JER_down_yield'
p66
aS'MET_JES_up_yield'
p67
aS'MET_JES_down_yield'
p68
aS'MET_Unclustered_up_yield'
p69
aS'MET_Unclustered_down_yield'
p70
aS'Muon_pt_up_yield'
p71
aS'Muon_pt_down_yield'
p72
aS'Tau_pt_up_yield'
p73
aS'Tau_pt_down_yield'
p74
aS'weight_btag_deepjet_sf_SelectedJet_jes_up_yield'
p75
aS'weight_btag_deepjet_sf_SelectedJet_jes_down_yield'
p76
aS'weight_btag_deepjet_sf_SelectedJet_lfstats1_up_yield'
p77
aS'weight_btag_deepjet_sf_SelectedJet_lfstats1_down_yield'
p78
aS'weight_btag_deepjet_sf_SelectedJet_lfstats2_up_yield'
p79
aS'weight_btag_deepjet_sf_SelectedJet_lfstats2_down_yield'
p80
aS'weight_btag_deepjet_sf_SelectedJet_hfstats1_up_yield'
p81
aS'weight_btag_deepjet_sf_SelectedJet_hfstats1_down_yield'
p82
aS'weight_btag_deepjet_sf_SelectedJet_hfstats2_up_yield'
p83
aS'weight_btag_deepjet_sf_SelectedJet_hfstats2_down_yield'
p84
aS'weight_btag_deepjet_sf_SelectedJet_cferr1_up_yield'
p85
aS'weight_btag_deepjet_sf_SelectedJet_cferr1_down_yield'
p86
aS'weight_btag_deepjet_sf_SelectedJet_cferr2_up_yield'
p87
aS'weight_btag_deepjet_sf_SelectedJet_cferr2_down_yield'
p88
atp89
bsS'name'
p90
Nstp91
Rp92
ag15
(cpandas.core.indexes.numeric
Int64Index
p93
(dp94
g18
g19
(g20
(I0
tp95
g22
tp96
Rp97
(I1
(I56
tp98
g26
(S'i8'
p99
I0
I1
tp100
Rp101
(I3
S'<'
p102
NNNI-1
I-1
I0
tp103
bI00
S'\x00\x00\x00\x00\x00\x00\x00\x00\x01\x00\x00\x00\x00\x00\x00\x00\x02\x00\x00\x00\x00\x00\x00\x00\x03\x00\x00\x00\x00\x00\x00\x00\x04\x00\x00\x00\x00\x00\x00\x00\x05\x00\x00\x00\x00\x00\x00\x00\x06\x00\x00\x00\x00\x00\x00\x00\x07\x00\x00\x00\x00\x00\x00\x00\x08\x00\x00\x00\x00\x00\x00\x00\t\x00\x00\x00\x00\x00\x00\x00\n\x00\x00\x00\x00\x00\x00\x00\x0b\x00\x00\x00\x00\x00\x00\x00\x0c\x00\x00\x00\x00\x00\x00\x00\r\x00\x00\x00\x00\x00\x00\x00\x0e\x00\x00\x00\x00\x00\x00\x00\x0f\x00\x00\x00\x00\x00\x00\x00\x10\x00\x00\x00\x00\x00\x00\x00\x11\x00\x00\x00\x00\x00\x00\x00\x12\x00\x00\x00\x00\x00\x00\x00\x13\x00\x00\x00\x00\x00\x00\x00\x14\x00\x00\x00\x00\x00\x00\x00\x15\x00\x00\x00\x00\x00\x00\x00\x16\x00\x00\x00\x00\x00\x00\x00\x17\x00\x00\x00\x00\x00\x00\x00\x18\x00\x00\x00\x00\x00\x00\x00\x19\x00\x00\x00\x00\x00\x00\x00\x1a\x00\x00\x00\x00\x00\x00\x00\x1b\x00\x00\x00\x00\x00\x00\x00\x1c\x00\x00\x00\x00\x00\x00\x00\x1d\x00\x00\x00\x00\x00\x00\x00\x1e\x00\x00\x00\x00\x00\x00\x00\x1f\x00\x00\x00\x00\x00\x00\x00 \x00\x00\x00\x00\x00\x00\x00!\x00\x00\x00\x00\x00\x00\x00"\x00\x00\x00\x00\x00\x00\x00#\x00\x00\x00\x00\x00\x00\x00$\x00\x00\x00\x00\x00\x00\x00%\x00\x00\x00\x00\x00\x00\x00&\x00\x00\x00\x00\x00\x00\x00\'\x00\x00\x00\x00\x00\x00\x00(\x00\x00\x00\x00\x00\x00\x00)\x00\x00\x00\x00\x00\x00\x00*\x00\x00\x00\x00\x00\x00\x00+\x00\x00\x00\x00\x00\x00\x00,\x00\x00\x00\x00\x00\x00\x00-\x00\x00\x00\x00\x00\x00\x00.\x00\x00\x00\x00\x00\x00\x00/\x00\x00\x00\x00\x00\x00\x000\x00\x00\x00\x00\x00\x00\x001\x00\x00\x00\x00\x00\x00\x002\x00\x00\x00\x00\x00\x00\x003\x00\x00\x00\x00\x00\x00\x004\x00\x00\x00\x00\x00\x00\x005\x00\x00\x00\x00\x00\x00\x006\x00\x00\x00\x00\x00\x00\x007\x00\x00\x00\x00\x00\x00\x00'
p104
tp105
bsg90
Nstp106
Rp107
a(lp108
g19
(g20
(I0
tp109
g22
tp110
Rp111
(I1
(I56
I56
tp112
g29
I00
(lp113
S'2016'
p114
ag114
ag114
ag114
ag114
ag114
ag114
ag114
ag114
ag114
ag114
ag114
ag114
ag114
ag114
ag114
ag114
ag114
aS'2017'
p115
ag115
ag115
ag115
ag115
ag115
ag115
ag115
ag115
ag115
ag115
ag115
ag115
ag115
ag115
ag115
ag115
ag115
aS'2018'
p116
ag116
ag116
ag116
ag116
ag116
ag116
ag116
ag116
ag116
ag116
ag116
ag116
ag116
ag116
ag116
ag116
ag116
aS'merged'
p117
ag117
aS'sig'
p118
ag118
ag118
ag118
ag118
ag118
ag118
ag118
ag118
ag118
ag118
ag118
ag118
ag118
ag118
ag118
ag118
ag118
ag118
ag118
ag118
ag118
ag118
ag118
ag118
ag118
ag118
ag118
ag118
ag118
ag118
ag118
ag118
ag118
ag118
ag118
ag118
ag118
ag118
ag118
ag118
ag118
ag118
ag118
ag118
ag118
ag118
ag118
ag118
ag118
ag118
ag118
ag118
ag118
aS'bkg'
p119
ag18
aS'VBFH'
p120
aS'VH'
p121
aS'ggH'
p122
aS'ttH'
p123
aS'ttHHheft1'
p124
aS'ttHHheft10'
p125
aS'ttHHheft11'
p126
aS'ttHHheft12'
p127
aS'ttHHheft13'
p128
aS'ttHHheft2'
p129
aS'ttHHheft3'
p130
aS'ttHHheft4'
p131
aS'ttHHheft5'
p132
aS'ttHHheft6'
p133
aS'ttHHheft7'
p134
aS'ttHHheft8'
p135
aS'ttHHheft9'
p136
aS'ttHHheftSM'
p137
ag120
ag121
ag122
ag123
ag124
ag125
ag126
ag127
ag128
ag129
ag130
ag131
ag132
ag133
ag134
ag135
ag136
ag137
ag120
ag121
ag122
ag123
ag124
ag125
ag126
ag127
ag128
ag129
ag130
ag131
ag132
ag133
ag134
ag135
ag136
ag137
aS'bkg_mass'
p138
aS'data_obs'
p139
aS'VBFH_2016_hgg'
p140
aS'VH_2016_hgg'
p141
aS'ggH_2016_hgg'
p142
aS'ttH_2016_hgg'
p143
aS'ttHHheft1_2016_hgg'
p144
aS'ttHHheft10_2016_hgg'
p145
aS'ttHHheft11_2016_hgg'
p146
aS'ttHHheft12_2016_hgg'
p147
aS'ttHHheft13_2016_hgg'
p148
aS'ttHHheft2_2016_hgg'
p149
aS'ttHHheft3_2016_hgg'
p150
aS'ttHHheft4_2016_hgg'
p151
aS'ttHHheft5_2016_hgg'
p152
aS'ttHHheft6_2016_hgg'
p153
aS'ttHHheft7_2016_hgg'
p154
aS'ttHHheft8_2016_hgg'
p155
aS'ttHHheft9_2016_hgg'
p156
aS'ttHHheftSM_2016_hgg'
p157
aS'VBFH_2017_hgg'
p158
aS'VH_2017_hgg'
p159
aS'ggH_2017_hgg'
p160
aS'ttH_2017_hgg'
p161
aS'ttHHheft1_2017_hgg'
p162
aS'ttHHheft10_2017_hgg'
p163
aS'ttHHheft11_2017_hgg'
p164
aS'ttHHheft12_2017_hgg'
p165
aS'ttHHheft13_2017_hgg'
p166
aS'ttHHheft2_2017_hgg'
p167
aS'ttHHheft3_2017_hgg'
p168
aS'ttHHheft4_2017_hgg'
p169
aS'ttHHheft5_2017_hgg'
p170
aS'ttHHheft6_2017_hgg'
p171
aS'ttHHheft7_2017_hgg'
p172
aS'ttHHheft8_2017_hgg'
p173
aS'ttHHheft9_2017_hgg'
p174
aS'ttHHheftSM_2017_hgg'
p175
aS'VBFH_2018_hgg'
p176
aS'VH_2018_hgg'
p177
aS'ggH_2018_hgg'
p178
aS'ttH_2018_hgg'
p179
aS'ttHHheft1_2018_hgg'
p180
aS'ttHHheft10_2018_hgg'
p181
aS'ttHHheft11_2018_hgg'
p182
aS'ttHHheft12_2018_hgg'
p183
aS'ttHHheft13_2018_hgg'
p184
aS'ttHHheft2_2018_hgg'
p185
aS'ttHHheft3_2018_hgg'
p186
aS'ttHHheft4_2018_hgg'
p187
aS'ttHHheft5_2018_hgg'
p188
aS'ttHHheft6_2018_hgg'
p189
aS'ttHHheft7_2018_hgg'
p190
aS'ttHHheft8_2018_hgg'
p191
aS'ttHHheft9_2018_hgg'
p192
aS'ttHHheftSM_2018_hgg'
p193
ag138
ag139
ag120
ag121
ag122
ag123
ag124
ag125
ag126
ag127
ag128
ag129
ag130
ag131
ag132
ag133
ag134
ag135
ag136
ag137
ag120
ag121
ag122
ag123
ag124
ag125
ag126
ag127
ag128
ag129
ag130
ag131
ag132
ag133
ag134
ag135
ag136
ag137
ag120
ag121
ag122
ag123
ag124
ag125
ag126
ag127
ag128
ag129
ag130
ag131
ag132
ag133
ag134
ag135
ag136
ag137
aS'-'
p194
ag194
aS'SR2'
p195
ag195
ag195
ag195
ag195
ag195
ag195
ag195
ag195
ag195
ag195
ag195
ag195
ag195
ag195
ag195
ag195
ag195
ag195
ag195
ag195
ag195
ag195
ag195
ag195
ag195
ag195
ag195
ag195
ag195
ag195
ag195
ag195
ag195
ag195
ag195
ag195
ag195
ag195
ag195
ag195
ag195
ag195
ag195
ag195
ag195
ag195
ag195
ag195
ag195
ag195
ag195
ag195
ag195
ag195
ag195
aS'/home/users/azecchin/Analysis/FinalFit/CMSSW_10_2_13/src/flashggFinalFit/files_systs/HEFTbr/ws_signal_2016/output_VBFH_M125_13TeV_pythia8_VBFH.root'
p196
aS'/home/users/azecchin/Analysis/FinalFit/CMSSW_10_2_13/src/flashggFinalFit/files_systs/HEFTbr/ws_signal_2016/output_VH_M125_13TeV_pythia8_VH.root'
p197
aS'/home/users/azecchin/Analysis/FinalFit/CMSSW_10_2_13/src/flashggFinalFit/files_systs/HEFTbr/ws_signal_2016/output_ggH_M125_13TeV_pythia8_ggH.root'
p198
aS'/home/users/azecchin/Analysis/FinalFit/CMSSW_10_2_13/src/flashggFinalFit/files_systs/HEFTbr/ws_signal_2016/output_ttH_M125_13TeV_pythia8_ttH.root'
p199
aS'/home/users/azecchin/Analysis/FinalFit/CMSSW_10_2_13/src/flashggFinalFit/files_systs/HEFTbr/ws_signal_2016/output_ttHHheft1_M125_13TeV_pythia8_ttHHheft1.root'
p200
aS'/home/users/azecchin/Analysis/FinalFit/CMSSW_10_2_13/src/flashggFinalFit/files_systs/HEFTbr/ws_signal_2016/output_ttHHheft10_M125_13TeV_pythia8_ttHHheft10.root'
p201
aS'/home/users/azecchin/Analysis/FinalFit/CMSSW_10_2_13/src/flashggFinalFit/files_systs/HEFTbr/ws_signal_2016/output_ttHHheft11_M125_13TeV_pythia8_ttHHheft11.root'
p202
aS'/home/users/azecchin/Analysis/FinalFit/CMSSW_10_2_13/src/flashggFinalFit/files_systs/HEFTbr/ws_signal_2016/output_ttHHheft12_M125_13TeV_pythia8_ttHHheft12.root'
p203
aS'/home/users/azecchin/Analysis/FinalFit/CMSSW_10_2_13/src/flashggFinalFit/files_systs/HEFTbr/ws_signal_2016/output_ttHHheft13_M125_13TeV_pythia8_ttHHheft13.root'
p204
aS'/home/users/azecchin/Analysis/FinalFit/CMSSW_10_2_13/src/flashggFinalFit/files_systs/HEFTbr/ws_signal_2016/output_ttHHheft2_M125_13TeV_pythia8_ttHHheft2.root'
p205
aS'/home/users/azecchin/Analysis/FinalFit/CMSSW_10_2_13/src/flashggFinalFit/files_systs/HEFTbr/ws_signal_2016/output_ttHHheft3_M125_13TeV_pythia8_ttHHheft3.root'
p206
aS'/home/users/azecchin/Analysis/FinalFit/CMSSW_10_2_13/src/flashggFinalFit/files_systs/HEFTbr/ws_signal_2016/output_ttHHheft4_M125_13TeV_pythia8_ttHHheft4.root'
p207
aS'/home/users/azecchin/Analysis/FinalFit/CMSSW_10_2_13/src/flashggFinalFit/files_systs/HEFTbr/ws_signal_2016/output_ttHHheft5_M125_13TeV_pythia8_ttHHheft5.root'
p208
aS'/home/users/azecchin/Analysis/FinalFit/CMSSW_10_2_13/src/flashggFinalFit/files_systs/HEFTbr/ws_signal_2016/output_ttHHheft6_M125_13TeV_pythia8_ttHHheft6.root'
p209
aS'/home/users/azecchin/Analysis/FinalFit/CMSSW_10_2_13/src/flashggFinalFit/files_systs/HEFTbr/ws_signal_2016/output_ttHHheft7_M125_13TeV_pythia8_ttHHheft7.root'
p210
aS'/home/users/azecchin/Analysis/FinalFit/CMSSW_10_2_13/src/flashggFinalFit/files_systs/HEFTbr/ws_signal_2016/output_ttHHheft8_M125_13TeV_pythia8_ttHHheft8.root'
p211
aS'/home/users/azecchin/Analysis/FinalFit/CMSSW_10_2_13/src/flashggFinalFit/files_systs/HEFTbr/ws_signal_2016/output_ttHHheft9_M125_13TeV_pythia8_ttHHheft9.root'
p212
aS'/home/users/azecchin/Analysis/FinalFit/CMSSW_10_2_13/src/flashggFinalFit/files_systs/HEFTbr/ws_signal_2016/output_ttHHheftSM_M125_13TeV_pythia8_ttHHheftSM.root'
p213
aS'/home/users/azecchin/Analysis/FinalFit/CMSSW_10_2_13/src/flashggFinalFit/files_systs/HEFTbr/ws_signal_2017/output_VBFH_M125_13TeV_pythia8_VBFH.root'
p214
aS'/home/users/azecchin/Analysis/FinalFit/CMSSW_10_2_13/src/flashggFinalFit/files_systs/HEFTbr/ws_signal_2017/output_VH_M125_13TeV_pythia8_VH.root'
p215
aS'/home/users/azecchin/Analysis/FinalFit/CMSSW_10_2_13/src/flashggFinalFit/files_systs/HEFTbr/ws_signal_2017/output_ggH_M125_13TeV_pythia8_ggH.root'
p216
aS'/home/users/azecchin/Analysis/FinalFit/CMSSW_10_2_13/src/flashggFinalFit/files_systs/HEFTbr/ws_signal_2017/output_ttH_M125_13TeV_pythia8_ttH.root'
p217
aS'/home/users/azecchin/Analysis/FinalFit/CMSSW_10_2_13/src/flashggFinalFit/files_systs/HEFTbr/ws_signal_2017/output_ttHHheft1_M125_13TeV_pythia8_ttHHheft1.root'
p218
aS'/home/users/azecchin/Analysis/FinalFit/CMSSW_10_2_13/src/flashggFinalFit/files_systs/HEFTbr/ws_signal_2017/output_ttHHheft10_M125_13TeV_pythia8_ttHHheft10.root'
p219
aS'/home/users/azecchin/Analysis/FinalFit/CMSSW_10_2_13/src/flashggFinalFit/files_systs/HEFTbr/ws_signal_2017/output_ttHHheft11_M125_13TeV_pythia8_ttHHheft11.root'
p220
aS'/home/users/azecchin/Analysis/FinalFit/CMSSW_10_2_13/src/flashggFinalFit/files_systs/HEFTbr/ws_signal_2017/output_ttHHheft12_M125_13TeV_pythia8_ttHHheft12.root'
p221
aS'/home/users/azecchin/Analysis/FinalFit/CMSSW_10_2_13/src/flashggFinalFit/files_systs/HEFTbr/ws_signal_2017/output_ttHHheft13_M125_13TeV_pythia8_ttHHheft13.root'
p222
aS'/home/users/azecchin/Analysis/FinalFit/CMSSW_10_2_13/src/flashggFinalFit/files_systs/HEFTbr/ws_signal_2017/output_ttHHheft2_M125_13TeV_pythia8_ttHHheft2.root'
p223
aS'/home/users/azecchin/Analysis/FinalFit/CMSSW_10_2_13/src/flashggFinalFit/files_systs/HEFTbr/ws_signal_2017/output_ttHHheft3_M125_13TeV_pythia8_ttHHheft3.root'
p224
aS'/home/users/azecchin/Analysis/FinalFit/CMSSW_10_2_13/src/flashggFinalFit/files_systs/HEFTbr/ws_signal_2017/output_ttHHheft4_M125_13TeV_pythia8_ttHHheft4.root'
p225
aS'/home/users/azecchin/Analysis/FinalFit/CMSSW_10_2_13/src/flashggFinalFit/files_systs/HEFTbr/ws_signal_2017/output_ttHHheft5_M125_13TeV_pythia8_ttHHheft5.root'
p226
aS'/home/users/azecchin/Analysis/FinalFit/CMSSW_10_2_13/src/flashggFinalFit/files_systs/HEFTbr/ws_signal_2017/output_ttHHheft6_M125_13TeV_pythia8_ttHHheft6.root'
p227
aS'/home/users/azecchin/Analysis/FinalFit/CMSSW_10_2_13/src/flashggFinalFit/files_systs/HEFTbr/ws_signal_2017/output_ttHHheft7_M125_13TeV_pythia8_ttHHheft7.root'
p228
aS'/home/users/azecchin/Analysis/FinalFit/CMSSW_10_2_13/src/flashggFinalFit/files_systs/HEFTbr/ws_signal_2017/output_ttHHheft8_M125_13TeV_pythia8_ttHHheft8.root'
p229
aS'/home/users/azecchin/Analysis/FinalFit/CMSSW_10_2_13/src/flashggFinalFit/files_systs/HEFTbr/ws_signal_2017/output_ttHHheft9_M125_13TeV_pythia8_ttHHheft9.root'
p230
aS'/home/users/azecchin/Analysis/FinalFit/CMSSW_10_2_13/src/flashggFinalFit/files_systs/HEFTbr/ws_signal_2017/output_ttHHheftSM_M125_13TeV_pythia8_ttHHheftSM.root'
p231
aS'/home/users/azecchin/Analysis/FinalFit/CMSSW_10_2_13/src/flashggFinalFit/files_systs/HEFTbr/ws_signal_2018/output_VBFH_M125_13TeV_pythia8_VBFH.root'
p232
aS'/home/users/azecchin/Analysis/FinalFit/CMSSW_10_2_13/src/flashggFinalFit/files_systs/HEFTbr/ws_signal_2018/output_VH_M125_13TeV_pythia8_VH.root'
p233
aS'/home/users/azecchin/Analysis/FinalFit/CMSSW_10_2_13/src/flashggFinalFit/files_systs/HEFTbr/ws_signal_2018/output_ggH_M125_13TeV_pythia8_ggH.root'
p234
aS'/home/users/azecchin/Analysis/FinalFit/CMSSW_10_2_13/src/flashggFinalFit/files_systs/HEFTbr/ws_signal_2018/output_ttH_M125_13TeV_pythia8_ttH.root'
p235
aS'/home/users/azecchin/Analysis/FinalFit/CMSSW_10_2_13/src/flashggFinalFit/files_systs/HEFTbr/ws_signal_2018/output_ttHHheft1_M125_13TeV_pythia8_ttHHheft1.root'
p236
aS'/home/users/azecchin/Analysis/FinalFit/CMSSW_10_2_13/src/flashggFinalFit/files_systs/HEFTbr/ws_signal_2018/output_ttHHheft10_M125_13TeV_pythia8_ttHHheft10.root'
p237
aS'/home/users/azecchin/Analysis/FinalFit/CMSSW_10_2_13/src/flashggFinalFit/files_systs/HEFTbr/ws_signal_2018/output_ttHHheft11_M125_13TeV_pythia8_ttHHheft11.root'
p238
aS'/home/users/azecchin/Analysis/FinalFit/CMSSW_10_2_13/src/flashggFinalFit/files_systs/HEFTbr/ws_signal_2018/output_ttHHheft12_M125_13TeV_pythia8_ttHHheft12.root'
p239
aS'/home/users/azecchin/Analysis/FinalFit/CMSSW_10_2_13/src/flashggFinalFit/files_systs/HEFTbr/ws_signal_2018/output_ttHHheft13_M125_13TeV_pythia8_ttHHheft13.root'
p240
aS'/home/users/azecchin/Analysis/FinalFit/CMSSW_10_2_13/src/flashggFinalFit/files_systs/HEFTbr/ws_signal_2018/output_ttHHheft2_M125_13TeV_pythia8_ttHHheft2.root'
p241
aS'/home/users/azecchin/Analysis/FinalFit/CMSSW_10_2_13/src/flashggFinalFit/files_systs/HEFTbr/ws_signal_2018/output_ttHHheft3_M125_13TeV_pythia8_ttHHheft3.root'
p242
aS'/home/users/azecchin/Analysis/FinalFit/CMSSW_10_2_13/src/flashggFinalFit/files_systs/HEFTbr/ws_signal_2018/output_ttHHheft4_M125_13TeV_pythia8_ttHHheft4.root'
p243
aS'/home/users/azecchin/Analysis/FinalFit/CMSSW_10_2_13/src/flashggFinalFit/files_systs/HEFTbr/ws_signal_2018/output_ttHHheft5_M125_13TeV_pythia8_ttHHheft5.root'
p244
aS'/home/users/azecchin/Analysis/FinalFit/CMSSW_10_2_13/src/flashggFinalFit/files_systs/HEFTbr/ws_signal_2018/output_ttHHheft6_M125_13TeV_pythia8_ttHHheft6.root'
p245
aS'/home/users/azecchin/Analysis/FinalFit/CMSSW_10_2_13/src/flashggFinalFit/files_systs/HEFTbr/ws_signal_2018/output_ttHHheft7_M125_13TeV_pythia8_ttHHheft7.root'
p246
aS'/home/users/azecchin/Analysis/FinalFit/CMSSW_10_2_13/src/flashggFinalFit/files_systs/HEFTbr/ws_signal_2018/output_ttHHheft8_M125_13TeV_pythia8_ttHHheft8.root'
p247
aS'/home/users/azecchin/Analysis/FinalFit/CMSSW_10_2_13/src/flashggFinalFit/files_systs/HEFTbr/ws_signal_2018/output_ttHHheft9_M125_13TeV_pythia8_ttHHheft9.root'
p248
aS'/home/users/azecchin/Analysis/FinalFit/CMSSW_10_2_13/src/flashggFinalFit/files_systs/HEFTbr/ws_signal_2018/output_ttHHheftSM_M125_13TeV_pythia8_ttHHheftSM.root'
p249
ag194
ag194
aS'VBFH_125_13TeV_SR2'
p250
aS'VH_125_13TeV_SR2'
p251
aS'ggH_125_13TeV_SR2'
p252
aS'ttH_125_13TeV_SR2'
p253
aS'ttHHheft1_125_13TeV_SR2'
p254
aS'ttHHheft10_125_13TeV_SR2'
p255
aS'ttHHheft11_125_13TeV_SR2'
p256
aS'ttHHheft12_125_13TeV_SR2'
p257
aS'ttHHheft13_125_13TeV_SR2'
p258
aS'ttHHheft2_125_13TeV_SR2'
p259
aS'ttHHheft3_125_13TeV_SR2'
p260
aS'ttHHheft4_125_13TeV_SR2'
p261
aS'ttHHheft5_125_13TeV_SR2'
p262
aS'ttHHheft6_125_13TeV_SR2'
p263
aS'ttHHheft7_125_13TeV_SR2'
p264
aS'ttHHheft8_125_13TeV_SR2'
p265
aS'ttHHheft9_125_13TeV_SR2'
p266
aS'ttHHheftSM_125_13TeV_SR2'
p267
aS'VBFH_125_13TeV_SR2'
p268
aS'VH_125_13TeV_SR2'
p269
aS'ggH_125_13TeV_SR2'
p270
aS'ttH_125_13TeV_SR2'
p271
aS'ttHHheft1_125_13TeV_SR2'
p272
aS'ttHHheft10_125_13TeV_SR2'
p273
aS'ttHHheft11_125_13TeV_SR2'
p274
aS'ttHHheft12_125_13TeV_SR2'
p275
aS'ttHHheft13_125_13TeV_SR2'
p276
aS'ttHHheft2_125_13TeV_SR2'
p277
aS'ttHHheft3_125_13TeV_SR2'
p278
aS'ttHHheft4_125_13TeV_SR2'
p279
aS'ttHHheft5_125_13TeV_SR2'
p280
aS'ttHHheft6_125_13TeV_SR2'
p281
aS'ttHHheft7_125_13TeV_SR2'
p282
aS'ttHHheft8_125_13TeV_SR2'
p283
aS'ttHHheft9_125_13TeV_SR2'
p284
aS'ttHHheftSM_125_13TeV_SR2'
p285
aS'VBFH_125_13TeV_SR2'
p286
aS'VH_125_13TeV_SR2'
p287
aS'ggH_125_13TeV_SR2'
p288
aS'ttH_125_13TeV_SR2'
p289
aS'ttHHheft1_125_13TeV_SR2'
p290
aS'ttHHheft10_125_13TeV_SR2'
p291
aS'ttHHheft11_125_13TeV_SR2'
p292
aS'ttHHheft12_125_13TeV_SR2'
p293
aS'ttHHheft13_125_13TeV_SR2'
p294
aS'ttHHheft2_125_13TeV_SR2'
p295
aS'ttHHheft3_125_13TeV_SR2'
p296
aS'ttHHheft4_125_13TeV_SR2'
p297
aS'ttHHheft5_125_13TeV_SR2'
p298
aS'ttHHheft6_125_13TeV_SR2'
p299
aS'ttHHheft7_125_13TeV_SR2'
p300
aS'ttHHheft8_125_13TeV_SR2'
p301
aS'ttHHheft9_125_13TeV_SR2'
p302
aS'ttHHheftSM_125_13TeV_SR2'
p303
ag194
ag194
aS'./Models/signal/CMS-HGG_sigfit_packaged_SR2.root'
p304
aS'./Models/signal/CMS-HGG_sigfit_packaged_SR2.root'
p305
aS'./Models/signal/CMS-HGG_sigfit_packaged_SR2.root'
p306
aS'./Models/signal/CMS-HGG_sigfit_packaged_SR2.root'
p307
aS'./Models/signal/CMS-HGG_sigfit_packaged_SR2.root'
p308
aS'./Models/signal/CMS-HGG_sigfit_packaged_SR2.root'
p309
aS'./Models/signal/CMS-HGG_sigfit_packaged_SR2.root'
p310
aS'./Models/signal/CMS-HGG_sigfit_packaged_SR2.root'
p311
aS'./Models/signal/CMS-HGG_sigfit_packaged_SR2.root'
p312
aS'./Models/signal/CMS-HGG_sigfit_packaged_SR2.root'
p313
aS'./Models/signal/CMS-HGG_sigfit_packaged_SR2.root'
p314
aS'./Models/signal/CMS-HGG_sigfit_packaged_SR2.root'
p315
aS'./Models/signal/CMS-HGG_sigfit_packaged_SR2.root'
p316
aS'./Models/signal/CMS-HGG_sigfit_packaged_SR2.root'
p317
aS'./Models/signal/CMS-HGG_sigfit_packaged_SR2.root'
p318
aS'./Models/signal/CMS-HGG_sigfit_packaged_SR2.root'
p319
aS'./Models/signal/CMS-HGG_sigfit_packaged_SR2.root'
p320
aS'./Models/signal/CMS-HGG_sigfit_packaged_SR2.root'
p321
aS'./Models/signal/CMS-HGG_sigfit_packaged_SR2.root'
p322
aS'./Models/signal/CMS-HGG_sigfit_packaged_SR2.root'
p323
aS'./Models/signal/CMS-HGG_sigfit_packaged_SR2.root'
p324
aS'./Models/signal/CMS-HGG_sigfit_packaged_SR2.root'
p325
aS'./Models/signal/CMS-HGG_sigfit_packaged_SR2.root'
p326
aS'./Models/signal/CMS-HGG_sigfit_packaged_SR2.root'
p327
aS'./Models/signal/CMS-HGG_sigfit_packaged_SR2.root'
p328
aS'./Models/signal/CMS-HGG_sigfit_packaged_SR2.root'
p329
aS'./Models/signal/CMS-HGG_sigfit_packaged_SR2.root'
p330
aS'./Models/signal/CMS-HGG_sigfit_packaged_SR2.root'
p331
aS'./Models/signal/CMS-HGG_sigfit_packaged_SR2.root'
p332
aS'./Models/signal/CMS-HGG_sigfit_packaged_SR2.root'
p333
aS'./Models/signal/CMS-HGG_sigfit_packaged_SR2.root'
p334
aS'./Models/signal/CMS-HGG_sigfit_packaged_SR2.root'
p335
aS'./Models/signal/CMS-HGG_sigfit_packaged_SR2.root'
p336
aS'./Models/signal/CMS-HGG_sigfit_packaged_SR2.root'
p337
aS'./Models/signal/CMS-HGG_sigfit_packaged_SR2.root'
p338
aS'./Models/signal/CMS-HGG_sigfit_packaged_SR2.root'
p339
aS'./Models/signal/CMS-HGG_sigfit_packaged_SR2.root'
p340
aS'./Models/signal/CMS-HGG_sigfit_packaged_SR2.root'
p341
aS'./Models/signal/CMS-HGG_sigfit_packaged_SR2.root'
p342
aS'./Models/signal/CMS-HGG_sigfit_packaged_SR2.root'
p343
aS'./Models/signal/CMS-HGG_sigfit_packaged_SR2.root'
p344
aS'./Models/signal/CMS-HGG_sigfit_packaged_SR2.root'
p345
aS'./Models/signal/CMS-HGG_sigfit_packaged_SR2.root'
p346
aS'./Models/signal/CMS-HGG_sigfit_packaged_SR2.root'
p347
aS'./Models/signal/CMS-HGG_sigfit_packaged_SR2.root'
p348
aS'./Models/signal/CMS-HGG_sigfit_packaged_SR2.root'
p349
aS'./Models/signal/CMS-HGG_sigfit_packaged_SR2.root'
p350
aS'./Models/signal/CMS-HGG_sigfit_packaged_SR2.root'
p351
aS'./Models/signal/CMS-HGG_sigfit_packaged_SR2.root'
p352
aS'./Models/signal/CMS-HGG_sigfit_packaged_SR2.root'
p353
aS'./Models/signal/CMS-HGG_sigfit_packaged_SR2.root'
p354
aS'./Models/signal/CMS-HGG_sigfit_packaged_SR2.root'
p355
aS'./Models/signal/CMS-HGG_sigfit_packaged_SR2.root'
p356
aS'./Models/signal/CMS-HGG_sigfit_packaged_SR2.root'
p357
aS'./Models/background/CMS-HGG_multipdf_SR2.root'
p358
ag358
aS'wsig_13TeV:hggpdfsmrel_VBFH_2016_SR2_13TeV'
p359
aS'wsig_13TeV:hggpdfsmrel_VH_2016_SR2_13TeV'
p360
aS'wsig_13TeV:hggpdfsmrel_ggH_2016_SR2_13TeV'
p361
aS'wsig_13TeV:hggpdfsmrel_ttH_2016_SR2_13TeV'
p362
aS'wsig_13TeV:hggpdfsmrel_ttHHheft1_2016_SR2_13TeV'
p363
aS'wsig_13TeV:hggpdfsmrel_ttHHheft10_2016_SR2_13TeV'
p364
aS'wsig_13TeV:hggpdfsmrel_ttHHheft11_2016_SR2_13TeV'
p365
aS'wsig_13TeV:hggpdfsmrel_ttHHheft12_2016_SR2_13TeV'
p366
aS'wsig_13TeV:hggpdfsmrel_ttHHheft13_2016_SR2_13TeV'
p367
aS'wsig_13TeV:hggpdfsmrel_ttHHheft2_2016_SR2_13TeV'
p368
aS'wsig_13TeV:hggpdfsmrel_ttHHheft3_2016_SR2_13TeV'
p369
aS'wsig_13TeV:hggpdfsmrel_ttHHheft4_2016_SR2_13TeV'
p370
aS'wsig_13TeV:hggpdfsmrel_ttHHheft5_2016_SR2_13TeV'
p371
aS'wsig_13TeV:hggpdfsmrel_ttHHheft6_2016_SR2_13TeV'
p372
aS'wsig_13TeV:hggpdfsmrel_ttHHheft7_2016_SR2_13TeV'
p373
aS'wsig_13TeV:hggpdfsmrel_ttHHheft8_2016_SR2_13TeV'
p374
aS'wsig_13TeV:hggpdfsmrel_ttHHheft9_2016_SR2_13TeV'
p375
aS'wsig_13TeV:hggpdfsmrel_ttHHheftSM_2016_SR2_13TeV'
p376
aS'wsig_13TeV:hggpdfsmrel_VBFH_2017_SR2_13TeV'
p377
aS'wsig_13TeV:hggpdfsmrel_VH_2017_SR2_13TeV'
p378
aS'wsig_13TeV:hggpdfsmrel_ggH_2017_SR2_13TeV'
p379
aS'wsig_13TeV:hggpdfsmrel_ttH_2017_SR2_13TeV'
p380
aS'wsig_13TeV:hggpdfsmrel_ttHHheft1_2017_SR2_13TeV'
p381
aS'wsig_13TeV:hggpdfsmrel_ttHHheft10_2017_SR2_13TeV'
p382
aS'wsig_13TeV:hggpdfsmrel_ttHHheft11_2017_SR2_13TeV'
p383
aS'wsig_13TeV:hggpdfsmrel_ttHHheft12_2017_SR2_13TeV'
p384
aS'wsig_13TeV:hggpdfsmrel_ttHHheft13_2017_SR2_13TeV'
p385
aS'wsig_13TeV:hggpdfsmrel_ttHHheft2_2017_SR2_13TeV'
p386
aS'wsig_13TeV:hggpdfsmrel_ttHHheft3_2017_SR2_13TeV'
p387
aS'wsig_13TeV:hggpdfsmrel_ttHHheft4_2017_SR2_13TeV'
p388
aS'wsig_13TeV:hggpdfsmrel_ttHHheft5_2017_SR2_13TeV'
p389
aS'wsig_13TeV:hggpdfsmrel_ttHHheft6_2017_SR2_13TeV'
p390
aS'wsig_13TeV:hggpdfsmrel_ttHHheft7_2017_SR2_13TeV'
p391
aS'wsig_13TeV:hggpdfsmrel_ttHHheft8_2017_SR2_13TeV'
p392
aS'wsig_13TeV:hggpdfsmrel_ttHHheft9_2017_SR2_13TeV'
p393
aS'wsig_13TeV:hggpdfsmrel_ttHHheftSM_2017_SR2_13TeV'
p394
aS'wsig_13TeV:hggpdfsmrel_VBFH_2018_SR2_13TeV'
p395
aS'wsig_13TeV:hggpdfsmrel_VH_2018_SR2_13TeV'
p396
aS'wsig_13TeV:hggpdfsmrel_ggH_2018_SR2_13TeV'
p397
aS'wsig_13TeV:hggpdfsmrel_ttH_2018_SR2_13TeV'
p398
aS'wsig_13TeV:hggpdfsmrel_ttHHheft1_2018_SR2_13TeV'
p399
aS'wsig_13TeV:hggpdfsmrel_ttHHheft10_2018_SR2_13TeV'
p400
aS'wsig_13TeV:hggpdfsmrel_ttHHheft11_2018_SR2_13TeV'
p401
aS'wsig_13TeV:hggpdfsmrel_ttHHheft12_2018_SR2_13TeV'
p402
aS'wsig_13TeV:hggpdfsmrel_ttHHheft13_2018_SR2_13TeV'
p403
aS'wsig_13TeV:hggpdfsmrel_ttHHheft2_2018_SR2_13TeV'
p404
aS'wsig_13TeV:hggpdfsmrel_ttHHheft3_2018_SR2_13TeV'
p405
aS'wsig_13TeV:hggpdfsmrel_ttHHheft4_2018_SR2_13TeV'
p406
aS'wsig_13TeV:hggpdfsmrel_ttHHheft5_2018_SR2_13TeV'
p407
aS'wsig_13TeV:hggpdfsmrel_ttHHheft6_2018_SR2_13TeV'
p408
aS'wsig_13TeV:hggpdfsmrel_ttHHheft7_2018_SR2_13TeV'
p409
aS'wsig_13TeV:hggpdfsmrel_ttHHheft8_2018_SR2_13TeV'
p410
aS'wsig_13TeV:hggpdfsmrel_ttHHheft9_2018_SR2_13TeV'
p411
aS'wsig_13TeV:hggpdfsmrel_ttHHheftSM_2018_SR2_13TeV'
p412
aS'multipdf:CMS_hgg_SR2_13TeV_bkgshape'
p413
aS'multipdf:roohist_data_mass_SR2'
p414
aI1000
aI1000
aI1000
aI1000
aI1000
aI1000
aI1000
aI1000
aI1000
aI1000
aI1000
aI1000
aI1000
aI1000
aI1000
aI1000
aI1000
aI1000
aI1000
aI1000
aI1000
aI1000
aI1000
aI1000
aI1000
aI1000
aI1000
aI1000
aI1000
aI1000
aI1000
aI1000
aI1000
aI1000
aI1000
aI1000
aI1000
aI1000
aI1000
aI1000
aI1000
aI1000
aI1000
aI1000
aI1000
aI1000
aI1000
aI1000
aI1000
aI1000
aI1000
aI1000
aI1000
aI1000
aF1.0
aI-1
aF-0.002467890830797769
aF0.0034516105571098395
aF0.07244981673389943
aF1.2782525466738506
aF0.00526567847241838
aF0.001776553294498699
aF0.002244101521185574
aF0.0012780615442620016
aF0.004920398913207106
aF0.01414675224812062
aF0.027840255367022657
aF0.04761377056784603
aF0.07304233846263582
aF0.1019358208540395
aF0.13181063475613253
aF0.019983475476201048
aF0.10005192391464207
aF5.4428496045369365e-06
aF-0.004253675213021644
aF0.04915443058805972
aF0.05258845036027543
aF2.582817999764793
aF0.01194580517980467
aF0.003990290176188785
aF0.005034613581398251
aF0.00288528498150678
aF0.011129220501165302
aF0.03202815926374608
aF0.06334494173533085
aF0.10856319303922658
aF0.16700120068109442
aF0.2310791082750109
aF0.30159562441302895
aF0.045015951682511865
aF0.22569640862490836
aF1.0933614677401252e-05
aF0.0015513965091674385
aF0.03093330957566773
aF0.15221193808078282
aF3.9258134258247206
aF0.017339873389004376
aF0.0057973144230872185
aF0.007313783516810125
aF0.004176741479961748
aF0.0161723521740164
aF0.04649479450309302
aF0.09190669558535178
aF0.157701070425596
aF0.24183738189131251
aF0.3361811849661478
aF0.4381566418213642
aF0.06503221282269266
aF0.32720693065019607
aF1.6309756534520372e-05
ag194
ag194
aF4.337382398428731e-06
aF3.645482715237747e-05
aF0.000848273473501733
aF0.0015420278622499237
aF8.432230081786581e-09
aF1.0507825282020709e-09
aF1.6884547230499384e-09
aF5.216993570277402e-10
aF6.870863467156513e-09
aF6.253231696912122e-08
aF2.449927333299113e-07
aF7.067143169801113e-07
aF1.876152789200883e-06
aF3.571210640094737e-06
aF5.585135233301606e-06
aF1.2446874245005766e-07
aF2.9741059951181123e-06
aF1.6576266372709565e-15
aF1.540206691478632e-05
aF0.00010355499620948031
aF0.0020275512677023176
aF0.003303611570830041
aF4.432876689527845e-08
aF5.371592848665683e-09
aF8.466597580011693e-09
aF2.7095794766573977e-09
aF3.5933907376984576e-08
aF3.2635954767689787e-07
aF1.2921966913083332e-06
aF3.753483972346142e-06
aF1.0146198226059542e-05
aF1.9031086323640257e-05
aF3.0450661097622515e-05
aF6.41646656888136e-07
aF1.5566074197774826e-05
aF2.8880580837882156e-15
aF1.1117542902151927e-05
aF0.0001928487757557789
aF0.003345722129719177
aF0.007105271358705394
aF9.462831983159328e-08
aF1.1350460449706833e-08
aF1.808068220902078e-08
aF5.673731700463678e-09
aF7.608809207913204e-08
aF6.983634599562296e-07
aF2.7396179886390927e-06
aF7.975405219595926e-06
aF2.1480912590689223e-05
aF4.027983820486127e-05
aF6.543315392654382e-05
aF1.3398446672796706e-06
aF3.2693498880682445e-05
aF6.654133071787001e-15
ag194
ag194
aF-0.002467890830797769
aF0.0034516105571098395
aF0.07244981673389943
aF1.2782525466738506
aF0.00526567847241838
aF0.001776553294498699
aF0.002244101521185574
aF0.0012780615442620016
aF0.004920398913207106
aF0.01414675224812062
aF0.027840255367022657
aF0.04761377056784603
aF0.07304233846263582
aF0.1019358208540395
aF0.13181063475613253
aF0.019983475476201048
aF0.10005192391464207
aF5.4428496045369365e-06
aF-0.004253675213021644
aF0.04915443058805972
aF0.05258845036027543
aF2.582817999764793
aF0.01194580517980467
aF0.003990290176188785
aF0.005034613581398251
aF0.00288528498150678
aF0.011129220501165302
aF0.03202815926374608
aF0.06334494173533085
aF0.10856319303922658
aF0.16700120068109442
aF0.2310791082750109
aF0.30159562441302895
aF0.045015951682511865
aF0.22569640862490836
aF1.0933614677401252e-05
aF0.0015513965091674385
aF0.03093330957566773
aF0.15221193808078282
aF3.9258134258247206
aF0.017339873389004376
aF0.0057973144230872185
aF0.007313783516810125
aF0.004176741479961748
aF0.0161723521740164
aF0.04649479450309302
aF0.09190669558535178
aF0.157701070425596
aF0.24183738189131251
aF0.3361811849661478
aF0.4381566418213642
aF0.06503221282269266
aF0.32720693065019607
aF1.6309756534520372e-05
ag194
ag194
aF-0.002467890830797769
aF0.0034516105571098395
aF0.07244981673389943
aF1.2782525466738506
aF0.00526567847241838
aF0.001776553294498699
aF0.002244101521185574
aF0.0012780615442620016
aF0.004920398913207106
aF0.01414675224812062
aF0.027840255367022657
aF0.04761377056784603
aF0.07304233846263582
aF0.1019358208540395
aF0.13181063475613253
aF0.019983475476201048
aF0.10005192391464207
aF5.4428496045369365e-06
aF-0.004253675213021644
aF0.04915443058805972
aF0.05258845036027543
aF2.582817999764793
aF0.01194580517980467
aF0.003990290176188785
aF0.005034613581398251
aF0.00288528498150678
aF0.011129220501165302
aF0.03202815926374608
aF0.06334494173533085
aF0.10856319303922658
aF0.16700120068109442
aF0.2310791082750109
aF0.30159562441302895
aF0.045015951682511865
aF0.22569640862490836
aF1.0933614677401252e-05
aF0.0015513965091674385
aF0.03093330957566773
aF0.15221193808078282
aF3.9258134258247206
aF0.017339873389004376
aF0.0057973144230872185
aF0.007313783516810125
aF0.004176741479961748
aF0.0161723521740164
aF0.04649479450309302
aF0.09190669558535178
aF0.157701070425596
aF0.24183738189131251
aF0.3361811849661478
aF0.4381566418213642
aF0.06503221282269266
aF0.32720693065019607
aF1.6309756534520372e-05
ag194
ag194
aF-0.0024633327827884377
aF0.0034349423696997264
aF0.07233325255514175
aF1.276042574571787
aF0.005255880449965636
aF0.0017731153347125496
aF0.002239707419152888
aF0.0012755288699818985
aF0.004911073630851967
aF0.014121380193327199
aF0.027790151038896906
aF0.04752566865615261
aF0.07290798292151604
aF0.10175129245950826
aF0.13157148569104557
aF0.019944451557166835
aF0.09985240002385136
aF5.432011986295432e-06
aF-0.0042445226602145295
aF0.04904726518442527
aF0.05245052524527561
aF2.5761589321848546
aF0.01191361631197651
aF0.003979203837754085
aF0.005020377069749829
aF0.0028769939404929327
aF0.011098766904956687
aF0.03194497835071448
aF0.06318195403597693
aF0.10827052882720886
aF0.166555581270815
aF0.2304774447513879
aF0.30080569471735347
aF0.04488912964001107
aF0.22503782101026978
aF1.0902835517361372e-05
aF0.0015498348449221298
aF0.030895513704655597
aF0.15210145326603391
aF3.9197861933045157
aF0.01731143506058087
aF0.0057874538252029855
aF0.007301193434016026
aF0.004169425611072341
aF0.016145426955687464
aF0.04642173689415175
aF0.09176232887942566
aF0.15744519614554084
aF0.24144924460742118
aF0.3356486862185557
aF0.437460415115936
aF0.06492034586901843
aF0.3266298215666945
aF1.628145427010182e-05
ag194
ag194
aF-0.002467890830797769
aF0.0034516105571098395
aF0.07244981673389943
aF1.2782525466738506
aF0.00526567847241838
aF0.001776553294498699
aF0.002244101521185574
aF0.0012780615442620016
aF0.004920398913207106
aF0.01414675224812062
aF0.027840255367022657
aF0.04761377056784603
aF0.07304233846263582
aF0.1019358208540395
aF0.13181063475613253
aF0.019983475476201048
aF0.10005192391464207
aF5.4428496045369365e-06
aF-0.004253675213021644
aF0.04915443058805972
aF0.05258845036027543
aF2.582817999764793
aF0.01194580517980467
aF0.003990290176188785
aF0.005034613581398251
aF0.00288528498150678
aF0.011129220501165302
aF0.03202815926374608
aF0.06334494173533085
aF0.10856319303922658
aF0.16700120068109442
aF0.2310791082750109
aF0.30159562441302895
aF0.045015951682511865
aF0.22569640862490836
aF1.0933614677401252e-05
aF0.0015513965091674385
aF0.03093330957566773
aF0.15221193808078282
aF3.9258134258247206
aF0.017339873389004376
aF0.0057973144230872185
aF0.007313783516810125
aF0.004176741479961748
aF0.0161723521740164
aF0.04649479450309302
aF0.09190669558535178
aF0.157701070425596
aF0.24183738189131251
aF0.3361811849661478
aF0.4381566418213642
aF0.06503221282269266
aF0.32720693065019607
aF1.6309756534520372e-05
ag194
ag194
aF-0.002467890830797769
aF0.0034141324735717615
aF0.07244981673389943
aF1.275287188702602
aF0.005257040611291793
aF0.0017734914991325678
aF0.002240142197642688
aF0.0012757922038056995
aF0.004912952251422591
aF0.014125288675954112
aF0.027788634704221184
aF0.04753810566636192
aF0.07292707195605032
aF0.10178026031466329
aF0.1316129558886381
aF0.01994985306504403
aF0.09986894121804252
aF5.433858920321274e-06
aF-0.004253675213021644
aF0.049113446551128884
aF0.05258845036027543
aF2.5776872482115496
aF0.011927613317788249
aF0.003984434872616052
aF0.0050263639896350075
aF0.00288042064800105
aF0.011113889250765336
aF0.03198280343070934
aF0.06323434112214828
aF0.10840405000120777
aF0.16676891747949465
aF0.23076350779262114
aF0.30118824693081286
aF0.044949077956746145
aF0.22533760695197066
aF1.0913795921143863e-05
aF0.0015513965091674385
aF0.03084407799532029
aF0.15221193808078282
aF3.9175335726650844
aF0.017312891270423052
aF0.0057878789753477745
aF0.007301466251790386
aF0.004169621126318458
aF0.016149407432432962
aF0.046426435632015955
aF0.09174468953817454
aF0.15746612884203123
aF0.24148017843236588
aF0.3357238512535182
aF0.43753834963548827
aF0.06492912458491909
aF0.32663915740916066
aF1.628259095416101e-05
ag194
ag194
aF-0.002467890830797769
aF0.0034516105571098395
aF0.07244981673389943
aF1.2782525466738506
aF0.00526567847241838
aF0.001776553294498699
aF0.002244101521185574
aF0.0012780615442620016
aF0.004920398913207106
aF0.01414675224812062
aF0.027840255367022657
aF0.04761377056784603
aF0.07304233846263582
aF0.1019358208540395
aF0.13181063475613253
aF0.019983475476201048
aF0.10005192391464207
aF5.4428496045369365e-06
aF-0.004253675213021644
aF0.04915443058805972
aF0.05258845036027543
aF2.582817999764793
aF0.01194580517980467
aF0.003990290176188785
aF0.005034613581398251
aF0.00288528498150678
aF0.011129220501165302
aF0.03202815926374608
aF0.06334494173533085
aF0.10856319303922658
aF0.16700120068109442
aF0.2310791082750109
aF0.30159562441302895
aF0.045015951682511865
aF0.22569640862490836
aF1.0933614677401252e-05
aF0.0015513965091674385
aF0.03093330957566773
aF0.15221193808078282
aF3.9258134258247206
aF0.017339873389004376
aF0.0057973144230872185
aF0.007313783516810125
aF0.004176741479961748
aF0.0161723521740164
aF0.04649479450309302
aF0.09190669558535178
aF0.157701070425596
aF0.24183738189131251
aF0.3361811849661478
aF0.4381566418213642
aF0.06503221282269266
aF0.32720693065019607
aF1.6309756534520372e-05
ag194
ag194
aF-0.002467890830797769
aF0.0034511962911000353
aF0.07244981673389943
aF1.2782008418911128
aF0.0052655757942652905
aF0.0017765223971562651
aF0.002244059342775834
aF0.0012780381536562984
aF0.004920313861567133
aF0.014146514101060588
aF0.027839765025065688
aF0.04761304000263315
aF0.07304117100415751
aF0.10193412176246773
aF0.1318085282872105
aF0.019983131412350613
aF0.10005021893286002
aF5.442661943076992e-06
aF-0.004253675213021644
aF0.049153041258000366
aF0.05258845036027543
aF2.582739090289239
aF0.011945565579754815
aF0.003990218973900671
aF0.005034514475285383
aF0.0028852316454891264
aF0.011129022108333107
aF0.03202759792685934
aF0.06334381934032494
aF0.10856149809730892
aF0.1669984795112593
aF0.2310751810982572
aF0.3015907520138494
aF0.04501515088365195
aF0.22569239803168703
aF1.0933336417791042e-05
aF0.0015513965091674385
aF0.030932959020807074
aF0.15221193808078282
aF3.9257101721426166
aF0.01733953010181525
aF0.0057972123199984535
aF0.00731364145094242
aF0.004176663974243921
aF0.016172066961333297
aF0.0464939871336692
aF0.091905061784263
aF0.15769862147594135
aF0.24183348356195886
aF0.3361755149624229
aF0.4381496159784638
aF0.06503106193853217
aF0.3272011918622517
aF1.630945359988162e-05
ag194
ag194
aF-0.002467890830797769
aF0.0034516105571098395
aF0.07244981673389943
aF1.2782525466738506
aF0.00526567847241838
aF0.001776553294498699
aF0.002244101521185574
aF0.0012780615442620016
aF0.004920398913207106
aF0.01414675224812062
aF0.027840255367022657
aF0.04761377056784603
aF0.07304233846263582
aF0.1019358208540395
aF0.13181063475613253
aF0.019983475476201048
aF0.10005192391464207
aF5.4428496045369365e-06
aF-0.004253675213021644
aF0.04915443058805972
aF0.05258845036027543
aF2.582817999764793
aF0.01194580517980467
aF0.003990290176188785
aF0.005034613581398251
aF0.00288528498150678
aF0.011129220501165302
aF0.03202815926374608
aF0.06334494173533085
aF0.10856319303922658
aF0.16700120068109442
aF0.2310791082750109
aF0.30159562441302895
aF0.045015951682511865
aF0.22569640862490836
aF1.0933614677401252e-05
aF0.0015513965091674385
aF0.03093330957566773
aF0.15221193808078282
aF3.9258134258247206
aF0.017339873389004376
aF0.0057973144230872185
aF0.007313783516810125
aF0.004176741479961748
aF0.0161723521740164
aF0.04649479450309302
aF0.09190669558535178
aF0.157701070425596
aF0.24183738189131251
aF0.3361811849661478
aF0.4381566418213642
aF0.06503221282269266
aF0.32720693065019607
aF1.6309756534520372e-05
ag194
ag194
aF-0.002467890830797769
aF0.0034512148024687813
aF0.07244981673389943
aF1.278158569034032
aF0.005265419017412989
aF0.0017764783489211517
aF0.002244008294660713
aF0.0012780089990087834
aF0.004920189301840433
aF0.014146170718348342
aF0.027839104519402556
aF0.04761194332300262
aF0.07303909161481065
aF0.10193164601649932
aF0.1318053811272777
aF0.019982694119234614
aF0.10004828106189047
aF5.44258695023635e-06
aF-0.004253675213021644
aF0.049152599142522055
aF0.05258845036027543
aF2.5826843406084135
aF0.011945185465648617
aF0.0039901178737697515
aF0.005034394612586099
aF0.002885164588324353
aF0.011128731699566154
aF0.032026793388559356
aF0.06334228125795066
aF0.10855896734251291
aF0.16699361757406436
aF0.23106952436607453
aF0.3015836101021234
aF0.045014139269250665
aF0.22568778917896973
aF1.093316771991074e-05
aF0.0015513965091674385
aF0.030931438993915854
aF0.15221193808078282
aF3.9255792397796165
aF0.01733899326843696
aF0.005797066721188416
aF0.007313470634530615
aF0.0041765669861200784
aF0.016171649060057882
aF0.04649282391684005
aF0.09190283972584144
aF0.15769499469689935
aF0.24182655338262785
aF0.33616734619418986
aF0.43813930659957706
aF0.06502960049814745
aF0.32719459074646623
aF1.6309063452845557e-05
ag194
ag194
aF-0.002467890830797769
aF0.0034516105571098395
aF0.07244981673389943
aF1.2782525466738506
aF0.00526567847241838
aF0.001776553294498699
aF0.002244101521185574
aF0.0012780615442620016
aF0.004920398913207106
aF0.01414675224812062
aF0.027840255367022657
aF0.04761377056784603
aF0.07304233846263582
aF0.1019358208540395
aF0.13181063475613253
aF0.019983475476201048
aF0.10005192391464207
aF5.4428496045369365e-06
aF-0.004253675213021644
aF0.04915443058805972
aF0.05258845036027543
aF2.582817999764793
aF0.01194580517980467
aF0.003990290176188785
aF0.005034613581398251
aF0.00288528498150678
aF0.011129220501165302
aF0.03202815926374608
aF0.06334494173533085
aF0.10856319303922658
aF0.16700120068109442
aF0.2310791082750109
aF0.30159562441302895
aF0.045015951682511865
aF0.22569640862490836
aF1.0933614677401252e-05
aF0.0015513965091674385
aF0.03093330957566773
aF0.15221193808078282
aF3.9258134258247206
aF0.017339873389004376
aF0.0057973144230872185
aF0.007313783516810125
aF0.004176741479961748
aF0.0161723521740164
aF0.04649479450309302
aF0.09190669558535178
aF0.157701070425596
aF0.24183738189131251
aF0.3361811849661478
aF0.4381566418213642
aF0.06503221282269266
aF0.32720693065019607
aF1.6309756534520372e-05
ag194
ag194
aF-0.002467890830797769
aF0.003449579552574191
aF0.07244981673389943
aF1.2780930079453048
aF0.005265252137668617
aF0.0017764281083076012
aF0.002243915987730034
aF0.0012779620005247774
aF0.004920062172349842
aF0.014145828481189879
aF0.02783825059273196
aF0.04761105810689691
aF0.07303803405499779
aF0.10192922904083479
aF0.13180229034516866
aF0.01998201851634862
aF0.10004456136233156
aF5.442236801165597e-06
aF-0.004253675213021644
aF0.04915098510645179
aF0.05258845036027543
aF2.582502210535005
aF0.011944814880644748
aF0.003989996595023887
aF0.005034176731571783
aF0.0028850593257735246
aF0.011128433410090907
aF0.03202598249395422
aF0.06334042541041453
aF0.10855690573935442
aF0.16699124461099096
aF0.2310638731537709
aF0.3015762050292832
aF0.04501254981595889
aF0.22567902492907557
aF1.093240837327058e-05
aF0.0015513965091674385
aF0.03093210068790817
aF0.15221193808078282
aF3.9253743202252522
aF0.017338457055515216
aF0.005796897273587717
aF0.00731315781513113
aF0.004176411182055854
aF0.016171221237733867
aF0.046491684899659
aF0.0919000545239156
aF0.15769195997743177
aF0.24182306576629206
aF0.3361591357865844
aF0.43812859425071854
aF0.06502735046176078
aF0.32718213000285234
aF1.630845615818158e-05
ag194
ag194
aF-0.002467890830797769
aF0.0034516105571098395
aF0.07244981673389943
aF1.2782525466738506
aF0.00526567847241838
aF0.001776553294498699
aF0.002244101521185574
aF0.0012780615442620016
aF0.004920398913207106
aF0.01414675224812062
aF0.027840255367022657
aF0.04761377056784603
aF0.07304233846263582
aF0.1019358208540395
aF0.13181063475613253
aF0.019983475476201048
aF0.10005192391464207
aF5.4428496045369365e-06
aF-0.004253675213021644
aF0.04915443058805972
aF0.05258845036027543
aF2.582817999764793
aF0.01194580517980467
aF0.003990290176188785
aF0.005034613581398251
aF0.00288528498150678
aF0.011129220501165302
aF0.03202815926374608
aF0.06334494173533085
aF0.10856319303922658
aF0.16700120068109442
aF0.2310791082750109
aF0.30159562441302895
aF0.045015951682511865
aF0.22569640862490836
aF1.0933614677401252e-05
aF0.0015513965091674385
aF0.03093330957566773
aF0.15221193808078282
aF3.9258134258247206
aF0.017339873389004376
aF0.0057973144230872185
aF0.007313783516810125
aF0.004176741479961748
aF0.0161723521740164
aF0.04649479450309302
aF0.09190669558535178
aF0.157701070425596
aF0.24183738189131251
aF0.3361811849661478
aF0.4381566418213642
aF0.06503221282269266
aF0.32720693065019607
aF1.6309756534520372e-05
ag194
ag194
aF-0.002467890830797769
aF0.003441997571937148
aF0.07244981673389943
aF1.2774122759525863
aF0.005263254284917246
aF0.001775814611436901
aF0.0022430120896723737
aF0.0012775245583253902
aF0.004918516861592093
aF0.014141600483503266
aF0.027829292873121796
aF0.04759920925605127
aF0.07302053234712802
aF0.1018981896422343
aF0.13176107912724408
aF0.019974846591467484
aF0.10000923613715913
aF5.440546005314843e-06
aF-0.004253675213021644
aF0.04914753980583147
aF0.05258845036027543
aF2.5814149471219023
aF0.011940212706636654
aF0.003988550903952599
aF0.005032049206525881
aF0.002884070224722104
aF0.011124823285789273
aF0.03201597113994264
aF0.06332045173296409
aF0.10852951015374745
aF0.16695151933737756
aF0.23099187570556576
aF0.3014795481947611
aF0.044995960607963216
aF0.22559550890302765
aF1.0928253472423554e-05
aF0.0015513965091674385
aF0.030933855861005343
aF0.15221193808078282
aF3.92315824050073
aF0.017331879515890186
aF0.00579485868522409
aF0.007310128818601407
aF0.004174954590689311
aF0.016166049974846237
aF0.04647747148289247
aF0.0918704475400374
aF0.15765240580220857
aF0.24176568695988634
aF0.3360544874201503
aF0.437988581609884
aF0.06500365258483391
aF0.32706258817305484
aF1.630204805950075e-05
ag194
ag194
aF-0.002467890830797769
aF0.0034516105571098395
aF0.07244981673389943
aF1.2782525466738506
aF0.00526567847241838
aF0.001776553294498699
aF0.002244101521185574
aF0.0012780615442620016
aF0.004920398913207106
aF0.01414675224812062
aF0.027840255367022657
aF0.04761377056784603
aF0.07304233846263582
aF0.1019358208540395
aF0.13181063475613253
aF0.019983475476201048
aF0.10005192391464207
aF5.4428496045369365e-06
aF-0.004253675213021644
aF0.04915443058805972
aF0.05258845036027543
aF2.582817999764793
aF0.01194580517980467
aF0.003990290176188785
aF0.005034613581398251
aF0.00288528498150678
aF0.011129220501165302
aF0.03202815926374608
aF0.06334494173533085
aF0.10856319303922658
aF0.16700120068109442
aF0.2310791082750109
aF0.30159562441302895
aF0.045015951682511865
aF0.22569640862490836
aF1.0933614677401252e-05
aF0.0015513965091674385
aF0.03093330957566773
aF0.15221193808078282
aF3.9258134258247206
aF0.017339873389004376
aF0.0057973144230872185
aF0.007313783516810125
aF0.004176741479961748
aF0.0161723521740164
aF0.04649479450309302
aF0.09190669558535178
aF0.157701070425596
aF0.24183738189131251
aF0.3361811849661478
aF0.4381566418213642
aF0.06503221282269266
aF0.32720693065019607
aF1.6309756534520372e-05
ag194
ag194
aF-0.0024627889318190772
aF0.00341873283065329
aF0.07230427762322365
aF1.2755092160272996
aF0.005254475552161983
aF0.0017727964615337937
aF0.0022392092105545896
aF0.0012753003803634157
aF0.004909767747558087
aF0.014117174338567476
aF0.027781337845571734
aF0.04751229596957631
aF0.07288443060642256
aF0.10171798518704758
aF0.13153132060504513
aF0.019940772570668803
aF0.09983739534689626
aF5.43089111120057e-06
aF-0.004244481202012925
aF0.049047443804019146
aF0.052443934439960774
aF2.576231319384222
aF0.011914578514170871
aF0.00397948591062508
aF0.005020809216636105
aF0.002877282539426805
aF0.011100022312287483
aF0.03194654387290041
aF0.06318219243163424
aF0.10828681265795183
aF0.1665631705521826
aF0.23049175352207815
aF0.3008193962876444
aF0.044894160813286836
aF0.22508147931378375
aF1.0903821815388286e-05
aF0.0015482633002197152
aF0.03086835005284412
aF0.15190817702756745
aF3.9170161554642178
aF0.01730130570751887
aF0.005784230433610035
aF0.0072970092760524805
aF0.00416703914734649
aF0.016135803923183225
aF0.04639308961079946
aF0.0917031962617945
aF0.15735066580303733
aF0.24128479176384415
aF0.3354388613081598
aF0.43718591593888956
aF0.06488490681596161
aF0.32646303297079277
aF1.627255482743741e-05
ag194
ag194
aF-0.0018716136590835426
aF0.00638374861951224
aF0.07244981673389943
aF1.2824324257416295
aF0.005288942006871555
aF0.0017887571711793248
aF0.0022481352351740734
aF0.0012798046933629322
aF0.004921414007471151
aF0.01416594691309676
aF0.027869672501247802
aF0.047486588347803886
aF0.07272865471665545
aF0.10205287315687367
aF0.13252719005741748
aF0.019927451574971094
aF0.10067901963678111
aF5.442573737820404e-06
aF-0.003140457755996655
aF0.04772160504505229
aF0.03751791974728152
aF2.602016727282686
aF0.011997399043149167
aF0.004020277051102807
aF0.005043494394505961
aF0.0028871176035677355
aF0.011138692995542585
aF0.032024885961074855
aF0.06338816457401958
aF0.1081831134257206
aF0.16627029995819909
aF0.23136795162486304
aF0.30314304115845114
aF0.04485791209960213
aF0.22707328339174893
aF1.0933833920644995e-05
aF0.0030021446763311044
aF0.03294650906390587
aF0.1522119380807828
aF3.9315185566049213
aF0.017406488045056647
aF0.005838641756968644
aF0.00731946841840177
aF0.0041763805830046085
aF0.016183306956047534
aF0.046503511753444915
aF0.09196640678644823
aF0.1571434985384601
aF0.24078029475532386
aF0.336741831825819
aF0.4404461605404238
aF0.06481168693117709
aF0.32915363750572335
aF1.63251028020918e-05
ag194
ag194
aF-0.0008909235267050319
aF0.003113973405473152
aF0.07244981673389943
aF1.2758996032373975
aF0.005250027567343205
aF0.0017756410800445796
aF0.0022473313164499127
aF0.001278313657520895
aF0.004920057241856695
aF0.014109196494089057
aF0.027714277895620174
aF0.04722195852242957
aF0.07297366219852763
aF0.10130166264029263
aF0.1317952621707322
aF0.020071964261610634
aF0.10013325317207981
aF5.4379483869847275e-06
aF-0.0016163299749260246
aF0.04991532566756107
aF0.05995926747178802
aF2.600217259205054
aF0.01192381334285864
aF0.003996469487678034
aF0.005045474013487768
aF0.0028889559624976436
aF0.011136936810106442
aF0.031971274374534536
aF0.06309797998844645
aF0.10773690061951097
aF0.16673390782971176
aF0.22988684637448423
aF0.3014841304821334
aF0.04523748626301773
aF0.22608848613345872
aF1.0918883426089253e-05
aF0.0015513965091674385
aF0.02961586809014735
aF0.13749575271521566
aF3.9047036921527387
aF0.017292891121904783
aF0.005806111501890385
aF0.007331064868761717
aF0.004183078220843476
aF0.016191038592147454
aF0.04639453785246609
aF0.09151386786939286
aF0.1564762591258903
aF0.2414035141316381
aF0.33456939809516806
aF0.4379089760259868
aF0.06535491820662499
aF0.3277209273847974
aF1.6300920583844113e-05
ag194
ag194
aF-0.0018716136590835426
aF0.0041873912299871295
aF0.07806469425108349
aF1.3313252472994148
aF0.005283763433878929
aF0.0018059928976958772
aF0.002279231522508506
aF0.0012863553694011584
aF0.004943858592340271
aF0.014141450619944233
aF0.02792631942469231
aF0.04702720489544984
aF0.07270201858908935
aF0.10109010678229123
aF0.13186031403928403
aF0.020253505190735332
aF0.10101311032223839
aF5.482764074735322e-06
aF-0.003140457755996655
aF0.05092098108904319
aF0.03519699220876367
aF2.6896046039684656
aF0.011958306872900233
aF0.0040559687013042465
aF0.005096261455409534
aF0.0028926624529726276
aF0.011149559037992638
aF0.03193114601489597
aF0.06334052565588544
aF0.10682752396311158
aF0.1659739309025702
aF0.2293381094839924
aF0.3015647969317539
aF0.04549251344303358
aF0.22756784626115542
aF1.094572678343853e-05
aF0.001435830781324308
aF0.03228043605371059
aF0.14028640196647305
aF4.086140042119821
aF0.01735340191040198
aF0.005884353314449426
aF0.007394355273825727
aF0.004185927517649212
aF0.016193364110688554
aF0.04636633175363469
aF0.09186677353786356
aF0.15512599463371274
aF0.2399437291567785
aF0.33396739302909834
aF0.4375842646618176
aF0.0657668358175955
aF0.32990433833003646
aF1.6389278166609035e-05
ag194
ag194
aF-0.0008909235267050319
aF0.0037878830334370484
aF0.07257636258541283
aF1.2143795877901784
aF0.00524980864524114
aF0.0017866388208929356
aF0.0022193838595581787
aF0.0012782139726412439
aF0.004932020550264786
aF0.014190052469845848
aF0.0278068591976371
aF0.04739107411698328
aF0.07274360128047368
aF0.10042240715653995
aF0.1319078518286378
aF0.019880890563511684
aF0.09837165440219217
aF5.401148481755654e-06
aF-0.0016163299749260246
aF0.04439563240935161
aF0.046577573295671144
aF2.5599521508315837
aF0.011940488389397414
aF0.004019109168552824
aF0.004990306394983276
aF0.0028952995837629824
aF0.011175605887757959
aF0.03221820074334093
aF0.0634733773004893
aF0.1081360284324957
aF0.16641265625880658
aF0.22920137090970996
aF0.3022682984433129
aF0.04489349263259689
aF0.22266857566332365
aF1.0892773022303234e-05
aF0.0030021446763311044
aF0.03173144372910503
aF0.13288684120195368
aF3.8006066736009014
aF0.01732416696830329
aF0.00583977205967395
aF0.007246518464191472
aF0.0041915342371096585
aF0.016256528612869248
aF0.04676497525959296
aF0.09205224575071866
aF0.15728449858911767
aF0.2408926821680497
aF0.3329681764572935
aF0.4390119769346044
aF0.06487951149862571
aF0.32274668473017526
aF1.624712662516997e-05
ag194
ag194
aF-0.002467890830797769
aF0.00345161055710984
aF0.07244981673389943
aF1.2738425637117305
aF0.005260154371692595
aF0.0017773921686427168
aF0.0022404718891245127
aF0.001276917180467204
aF0.00491735413678932
aF0.014166283456171873
aF0.02783752918755632
aF0.04749653163699851
aF0.0731585697757468
aF0.1016688243827441
aF0.13150324460910195
aF0.020013913949213542
aF0.09995953980333301
aF5.4398470185139305e-06
aF-0.004253675213021644
aF0.05005403227439635
aF0.052588450360275436
aF2.584890917131103
aF0.011926756265466871
aF0.003994141874873326
aF0.005024316075844588
aF0.0028825800168419172
aF0.011124719437812104
aF0.032040172663105375
aF0.06334730482290887
aF0.10828936896948145
aF0.16730105944903703
aF0.23048005111235362
aF0.30075474104640176
aF0.045049974295849886
aF0.22540176190222802
aF1.0926394757211001e-05
aF0.0015513965091674385
aF0.028541119398092576
aF0.1522119380807828
aF3.92596616532894
aF0.017314196264679074
aF0.005803704794588087
aF0.007300803474413381
aF0.004173089049341487
aF0.01616969689674736
aF0.0465448455432582
aF0.09193577842684485
aF0.1573114593392618
aF0.24220670000390135
aF0.3352249734479405
aF0.4370576539732337
aF0.06508883246782186
aF0.3267018255576055
aF1.6302660989707244e-05
ag194
ag194
aF-0.0008909235267050319
aF0.00345161055710984
aF0.07244981673389943
aF1.2739493917916103
aF0.005263518711969491
aF0.0017823577378398648
aF0.002242747328636204
aF0.0012794086130069114
aF0.004932396794396312
aF0.014130077537205313
aF0.027812355482422696
aF0.047597856582210975
aF0.07305995789201382
aF0.10196266792975232
aF0.13180749957783136
aF0.02000638157957496
aF0.09996082068377148
aF5.440698117739365e-06
aF-0.0016163299749260246
aF0.0492811019669319
aF0.05725430537259512
aF2.568612430500336
aF0.01193801380333193
aF0.004004613766203264
aF0.005032123761542837
aF0.0028889004474924656
aF0.011148895394478173
aF0.031983288199535644
aF0.06327491576932476
aF0.10848789275923269
aF0.1671246687455895
aF0.2311186623339439
aF0.30140280037564693
aF0.04507190021463906
aF0.22545451603601824
aF1.0927875621372395e-05
aF0.0015513965091674385
aF0.02803359255600159
aF0.15139148348518805
aF3.9512932183835616
aF0.017333299573973764
aF0.005817835455756234
aF0.0073096247102343815
aF0.004181123099451412
aF0.01620530994652216
aF0.046439249933147575
aF0.09180135705180466
aF0.15760539162925744
aF0.24198307660628374
aF0.33625190873530914
aF0.4380603514102078
aF0.06508421893476327
aF0.32692593516259444
aF1.6313335070182468e-05
ag194
ag194
aF-0.002467890830797769
aF0.00345161055710984
aF0.08112387729531376
aF1.2828935984037373
aF0.005256148595529134
aF0.0017837713846201874
aF0.002246055385269532
aF0.0012798290306711769
aF0.0049421394451736045
aF0.014101811737040379
aF0.027793302703746383
aF0.047388137559489805
aF0.07300446050009317
aF0.10179366056235996
aF0.13162152045034195
aF0.02002504015608167
aF0.10009503329059277
aF5.44266858205925e-06
aF-0.004253675213021644
aF0.0512978207442896
aF0.052588450360275436
aF2.5873258624640365
aF0.01192722167801096
aF0.004007953708359847
aF0.005041853911443543
aF0.0028900185433997877
aF0.011181562249454362
aF0.031909348635154364
aF0.063223731625652
aF0.10809393440976955
aF0.1670078939360035
aF0.23092379326671075
aF0.3011400864384351
aF0.045057677379142506
aF0.22579795472754824
aF1.0936595633911324e-05
aF0.0015513965091674385
aF0.031156658325382905
aF0.16199053976715563
aF3.949498522332868
aF0.017320971440083224
aF0.005823932301373142
aF0.0073224715480877155
aF0.004182487312229916
aF0.016243835807624035
aF0.046307480050367396
aF0.09175591418498706
aF0.1569962653188091
aF0.24161306672584082
aF0.33601215135412815
aF0.4375441739616314
aF0.06509418067652258
aF0.3274132207711386
aF1.6317907280074904e-05
ag194
ag194
aF-0.0008909235267050319
aF0.004915493641167562
aF0.07244981673389943
aF1.2694177279764352
aF0.0052787293294885365
aF0.0017767155708768622
aF0.0022388367175627277
aF0.001279580272464485
aF0.004919442156264177
aF0.014174157601075217
aF0.027822131825750062
aF0.04767263720334932
aF0.07296187828160389
aF0.10200905248105925
aF0.1318407141887695
aF0.019962447878492034
aF0.09993013432310854
aF5.4382516517049865e-06
aF-0.0016163299749260246
aF0.05047448187097325
aF0.052588450360275436
aF2.570483234948151
aF0.0119660551355708
aF0.003994063769899783
aF0.005022291720204762
aF0.002888832241663475
aF0.011121809245109677
aF0.03206372633131635
aF0.06330700158081579
aF0.10867880642387377
aF0.16686694181832215
aF0.23122788310981637
aF0.30125498997212374
aF0.04495795151423639
aF0.22539848164352783
aF1.0924230305676269e-05
aF0.002861253003097976
aF0.025992822031755743
aF0.12831837070635718
aF3.915182629829073
aF0.017370237022362678
aF0.005802396758932379
aF0.007295647587807843
aF0.004182411024343314
aF0.0161639228403912
aF0.04657248397050061
aF0.091850246925134
aF0.1578917349150289
aF0.24164935277959912
aF0.3363418135725239
aF0.43781129939141333
aF0.06494507254396321
aF0.3268552472087222
aF1.6307243778466524e-05
ag194
ag194
aF-0.002467890830797769
aF0.0024026091317374465
aF0.07244981673389943
aF1.2629869276730894
aF0.005295304592199365
aF0.001778766574775629
aF0.002241423993009454
aF0.0012821593988743463
aF0.0049228948776156925
aF0.014156227590685092
aF0.027718612180510534
aF0.04761916554317653
aF0.07306926817699193
aF0.10187773536472146
aF0.13231020911123664
aF0.020035375207452282
aF0.09985585554413696
aF5.4285001072871775e-06
aF-0.004253675213021644
aF0.049181969965103864
aF0.052588450360275436
aF2.59161907906157
aF0.011998558973518357
aF0.003998111264158821
aF0.005026775263549963
aF0.0028958012745837506
aF0.011137053185616955
aF0.03201697674950443
aF0.06308416686935901
aF0.10853227678387718
aF0.16699508516666475
aF0.2310269790425097
aF0.30262079530725505
aF0.045130836713886666
aF0.2252035914205878
aF1.092505300058833e-05
aF0.0015513965091674385
aF0.0262577396086794
aF0.13809697239273003
aF3.9498381729454546
aF0.017419900899763842
aF0.005810908921464584
aF0.007303328572730379
aF0.00419161172350064
aF0.016186461258666303
aF0.04651445008128543
aF0.09152549609130753
aF0.15758228121325052
aF0.24185200630514012
aF0.3360606724861154
aF0.4395737728208743
aF0.0651850014885914
aF0.32648605127528346
aF1.6307669870883503e-05
ag194
ag194
aF-0.002467890830797769
aF0.000724770081349788
aF0.07560666504220219
aF1.2782033581138088
aF0.005242643837972006
aF0.0017827458767896837
aF0.0022373113097884268
aF0.001281264842929242
aF0.004938896320962107
aF0.014147012113306136
aF0.027898952008091418
aF0.04740053943601625
aF0.0732702643053893
aF0.10179787350201376
aF0.1317204054852079
aF0.019933645615784333
aF0.09996280576742787
aF5.441989808313023e-06
aF-0.004253675213021644
aF0.047200688123203736
aF0.04609005646113594
aF2.5737178765827835
aF0.01188955203167379
aF0.004004357676094843
aF0.005019642610887693
aF0.0028923847038134064
aF0.011170633962097859
aF0.03203116429437734
aF0.06346936895623154
aF0.10803955638551486
aF0.16770644857576913
aF0.23100421557035758
aF0.3011734080628454
aF0.04480988070544443
aF0.22550443258678146
aF1.0941762215100746e-05
aF0.0015513965091674385
aF0.029991308228936888
aF0.1522119380807828
aF3.8961957301296324
aF0.017260166515601482
aF0.005817545369683349
aF0.007289983226918676
aF0.004187275896130873
aF0.016232761377292525
aF0.04648335978597591
aF0.09211831798727055
aF0.15695052393605063
aF0.24280299876236108
aF0.3359940250925252
aF0.4377892878510553
aF0.06476349494084656
aF0.3268255806242084
aF1.631768164371595e-05
ag194
ag194
aF-0.002467890830797769
aF0.00345161055710984
aF0.07244981673389943
aF1.2784776651998044
aF0.00526567847241838
aF0.001776371511493777
aF0.0022441015211855735
aF0.0012776993077818041
aF0.004920398913207104
aF0.014146752248120557
aF0.027840255367022643
aF0.04761377056784605
aF0.07304233846263587
aF0.10193582085403956
aF0.1318106347561323
aF0.01998347547620101
aF0.10007596563424269
aF5.442515092893254e-06
aF-0.004253675213021644
aF0.04994323746726273
aF0.052588450360275436
aF2.5825798082612734
aF0.011945805179804677
aF0.003989624250794113
aF0.00503461358139825
aF0.0028844569457726716
aF0.011129220501165313
aF0.03202815926374613
aF0.06334494173533091
aF0.10856319303922672
aF0.16700120068109423
aF0.23107910827501052
aF0.30159562441302934
aF0.04501595168251181
aF0.22575687825978938
aF1.0933860150951872e-05
aF0.0015513965091674385
aF0.030933309575667728
aF0.1522119380807828
aF3.925545531591412
aF0.01733987338900434
aF0.005796236147658867
aF0.007313783516810113
aF0.004175685197943769
aF0.016172352174016368
aF0.04649479450309298
aF0.09190669558535176
aF0.15770107042559559
aF0.2418373818913124
aF0.33618118496614785
aF0.43815664182136543
aF0.0650322128226926
aF0.32730012176424195
aF1.631025203030861e-05
ag194
ag194
aF-0.002467890830797769
aF0.00345161055710984
aF0.07244981673389943
aF1.277816253539363
aF0.00526567847241838
aF0.0017765532944986997
aF0.0022441015211855735
aF0.0012776993077818041
aF0.004920398913207104
aF0.014150029722908618
aF0.027847232714763435
aF0.04761377056784605
aF0.07304233846263587
aF0.10193582085403956
aF0.1318106347561323
aF0.01998347547620101
aF0.10005192391464206
aF5.442515092893254e-06
aF-0.004253675213021644
aF0.04915443058805974
aF0.052588450360275436
aF2.5828775278721263
aF0.011945805179804677
aF0.003990290176188773
aF0.00503461358139825
aF0.0028844569457726716
aF0.011129220501165313
aF0.03203866504021895
aF0.06336316184387766
aF0.10856319303922672
aF0.16700120068109423
aF0.23107910827501052
aF0.30159562441302934
aF0.04501595168251181
aF0.22569640862490847
aF1.093379143080091e-05
aF0.0015513965091674385
aF0.030933309575667728
aF0.1522119380807828
aF3.9262029956988354
aF0.01733987338900434
aF0.005797314423087229
aF0.007313783516810113
aF0.004175685197943769
aF0.016172352174016368
aF0.04650906943687436
aF0.09193173146623193
aF0.15770107042559559
aF0.2418373818913124
aF0.33618118496614785
aF0.43815664182136543
aF0.0650322128226926
aF0.327206930650196
aF1.6310548830659774e-05
ag194
ag194
aF-0.002467890830797769
aF0.00345161055710984
aF0.07244981673389943
aF1.2775251006266193
aF0.005267069780196552
aF0.0017763842034620556
aF0.0022445236609966134
aF0.0012780882150515535
aF0.0049237136501244635
aF0.014145415874178604
aF0.02784913852867913
aF0.047620261438416245
aF0.07303383607569698
aF0.10194018948026655
aF0.13179574376804523
aF0.01998475470580577
aF0.09999918873653449
aF5.443191365199695e-06
aF-0.004253675213021644
aF0.04915443058805974
aF0.052588450360275436
aF2.5833271293713205
aF0.011949245890250685
aF0.003989938177825388
aF0.005035454669888259
aF0.002885411644905176
aF0.011135881645707585
aF0.03202543624898022
aF0.06335907752886717
aF0.10858748439541965
aF0.16698094807196368
aF0.2311208463276949
aF0.30157183519195935
aF0.045018956100641154
aF0.2255937989099306
aF1.093384145710846e-05
aF0.0015513965091674385
aF0.030933309575667728
aF0.1522119380807828
aF3.927022626768145
aF0.017344506492737683
aF0.005796833249104916
aF0.007314969476657558
aF0.004176985012037164
aF0.016181449761617613
aF0.04649005850434626
aF0.09193074917080722
aF0.1577315796572915
aF0.2418072077153208
aF0.3362504969624942
aF0.43812679903900725
aF0.06503445875245573
aF0.32705149787281246
aF1.6309218936838964e-05
ag194
ag194
aF-0.002467890830797769
aF0.00345161055710984
aF0.07244981673389943
aF1.2783278870585015
aF0.00526567847241838
aF0.0017763868847472846
aF0.002244601481785376
aF0.0012777306419373363
aF0.004920398913207104
aF0.014146661569763143
aF0.02783396612223601
aF0.047608248967725066
aF0.07304233846263587
aF0.10197664468417479
aF0.1317964790587395
aF0.01998565703900462
aF0.10005192391464206
aF5.442808750168033e-06
aF-0.004253675213021644
aF0.04915443058805974
aF0.052588450360275436
aF2.5848200735805134
aF0.011945805179804677
aF0.003989583727127795
aF0.005035891218292945
aF0.002884530620651935
aF0.011129220501165313
aF0.03202665754948959
aF0.06333224761062096
aF0.10854638870284151
aF0.16700120068109423
aF0.23120274859453968
aF0.3015566702800191
aF0.045018628938457116
aF0.22569640862490847
aF1.0934076211644852e-05
aF0.0015513965091674385
aF0.030933309575667728
aF0.1522119380807828
aF3.926383957836582
aF0.01733987338900434
aF0.005796636526471265
aF0.007315317899324829
aF0.004175721204693535
aF0.016172352174016368
aF0.04649362915320261
aF0.09188736956782649
aF0.15767957178205935
aF0.2418373818913124
aF0.33633755907657414
aF0.43808923809280115
aF0.06503580812263776
aF0.327206930650196
aF1.6310722717007186e-05
ag194
ag194
aF-0.0023280391770314425
aF0.0035542562382489657
aF0.07148877351150416
aF1.2744898462316148
aF0.005290404152810054
aF0.0017862902171420782
aF0.002258235044320269
aF0.0012857661095645502
aF0.004950854074354877
aF0.014226494843413057
aF0.028012567095620024
aF0.04782290401121353
aF0.07337598424009703
aF0.10246181214942078
aF0.1324587664978501
aF0.02008545804237078
aF0.10063363728529601
aF5.437541973843367e-06
aF-0.0042565432853556165
aF0.048793719057319294
aF0.05299269720356005
aF2.588317256511508
aF0.011902163959692085
aF0.003978982434114567
aF0.005026069743128637
aF0.0028787283291249743
aF0.01110073039486421
aF0.031958884051445514
aF0.06315233584143737
aF0.1081067861043332
aF0.16617345740416786
aF0.2307342058651859
aF0.30065524041491043
aF0.04489834336554471
aF0.22502732594418828
aF1.0925589908497416e-05
aF0.001595716061909599
aF0.02986724551931047
aF0.14930470313086222
aF3.9366701678678124
aF0.01728236992410509
aF0.005789733946597116
aF0.007316414894626114
aF0.004170106164088177
aF0.01614075695424778
aF0.04640248959883496
aF0.0916842060202236
aF0.15701234482697674
aF0.24070553803191322
aF0.33594783078206847
aF0.4367045774088403
aF0.06493284318268588
aF0.32647622701868795
aF1.6285597534630578e-05
ag194
ag194
aF-0.0024954990115750864
aF0.0033032277657039726
aF0.07245794413139119
aF1.2808103273418765
aF0.00523811182925911
aF0.0017666736398484362
aF0.0022308853631465
aF0.0012701311549135376
aF0.004891732193890021
aF0.014065198468089426
aF0.027700378603043297
aF0.04738705222556115
aF0.07274366883462952
aF0.10131317699155623
aF0.13107968179203655
aF0.01988901042138178
aF0.099449272099479
aF5.450662694964389e-06
aF-0.004141873756758448
aF0.04953975826521633
aF0.05460434978309864
aF2.5800569746085276
aF0.011991328162773674
aF0.004001425206922532
aF0.005044624409688332
aF0.0028919933308562094
aF0.011156920308926763
aF0.0320988533843778
aF0.06351925548115454
aF0.10903231554733343
aF0.1678809932280114
aF0.23166255974535815
aF0.3024873129983556
aF0.045146416773459624
aF0.22644836375383798
aF1.0940767881495611e-05
aF0.001589993892712001
aF0.03256722196447005
aF0.1553703256838425
aF3.9232800153959744
aF0.0173893177898813
aF0.005802228634140035
aF0.007314972355079847
aF0.00417767183023396
aF0.016179406758501685
aF0.04654288104406256
aF0.091981443018065
aF0.1581577662760006
aF0.24286169486464598
aF0.3363769659981117
aF0.43870107732637276
aF0.06511522560230393
aF0.32760280607179815
aF1.6320718422215286e-05
ag194
ag194
aF-0.0026541981600084943
aF0.003905099721542658
aF0.07325352659332574
aF1.2844556290707023
aF0.005216879790199759
aF0.0017721769972406506
aF0.002234256389169091
aF0.0012769404193546377
aF0.0048834033117275185
aF0.013973091574564276
aF0.02757705500893457
aF0.04707010924239968
aF0.07225446249559615
aF0.10080951684700276
aF0.1303064585657979
aF0.01994586574080576
aF0.09982465140620585
aF5.440773102333558e-06
aF-0.004252934498078582
aF0.04906843062701652
aF0.05095762394388757
aF2.581930173630803
aF0.011947705199545612
aF0.003992185499888603
aF0.005037387855356816
aF0.0028875462254728166
aF0.011133574043924736
aF0.032032355415195654
aF0.0634080635672886
aF0.1086117093690348
aF0.16709120842356556
aF0.23125586683306118
aF0.30186439651694236
aF0.045041979387400934
aF0.22578308673331915
aF1.0934962276890988e-05
aF0.0016127437050703663
aF0.031068105144027323
aF0.1534731916796857
aF3.926918530324026
aF0.017343037908651562
aF0.005800054970356788
aF0.0073181906367311405
aF0.004179737691989291
aF0.01617511862676876
aF0.04649958246288146
aF0.09194689549727059
aF0.1577164519580847
aF0.24189777414897745
aF0.33632310611344984
aF0.43837566827652413
aF0.0650470506870129
aF0.3272373953045389
aF1.6314995377435705e-05
ag194
ag194
aF-0.0022716298429635634
aF0.003192617657661887
aF0.07119697432742007
aF1.2723613800997837
aF0.0053205120086147395
aF0.0017817608549065215
aF0.0022549189167583006
aF0.0012796989623904324
aF0.004960425658190297
aF0.014334552222755427
aF0.028134125472046728
aF0.04821203601358434
aF0.07392988666526729
aF0.10317168999833862
aF0.1334528426153654
aF0.020029404975058358
aF0.1003211931056796
aF5.444896696400197e-06
aF-0.004307837207525117
aF0.04921215665318144
aF0.05431262773047056
aF2.5829828539164446
aF0.011943763905616366
aF0.003987035758596125
aF0.0050303222574872054
aF0.0028828765070483507
aF0.011125614378143063
aF0.03201815537988553
aF0.06327183700702878
aF0.1085041828650273
aF0.1669100987190672
aF0.23089338393308392
aF0.3013207620276062
aF0.04499386990362223
aF0.2255715406506036
aF1.093212839021474e-05
aF0.001497759324141558
aF0.030816959946175844
aF0.15090705881469854
aF3.924747222034364
aF0.017337407618389367
aF0.00579438481161505
aF0.007308892994821182
aF0.004173438688682194
aF0.016169458528047107
aF0.04649110248472719
aF0.09186273840963058
aF0.15769176400321977
aF0.24178341171222273
aF0.3360288951074948
aF0.4379373304888102
aF0.06501950466457172
aF0.3271685567786106
aF1.630432252371139e-05
ag194
ag194
aF-0.00253645294985833
aF0.0036194894167210384
aF0.07074890834559461
aF1.2806257746104877
aF0.0052254788710866355
aF0.0017729457461950955
aF0.002235223324260059
aF0.0012774940511399166
aF0.004890163731595965
aF0.014003161854876265
aF0.027620570691647167
aF0.047155417373256805
aF0.07237044172974212
aF0.10094749430513383
aF0.1305506430499112
aF0.019958527421082395
aF0.09992031700775578
aF5.4383959820945385e-06
aF-0.004108998901811101
aF0.04885969515767855
aF0.049991877967917125
aF2.578168866832721
aF0.011949908438713653
aF0.003992141441832775
aF0.005036591964043136
aF0.0028880168292274243
aF0.01113839537356636
aF0.03205139075387028
aF0.06342468206258714
aF0.1086446820623977
aF0.1671310256686768
aF0.23120571758415573
aF0.30190880220082283
aF0.04505130422916199
aF0.2258570485689161
aF1.0934197995230043e-05
aF0.001572553854194615
aF0.0308101170260494
aF0.15199981318926345
aF3.918555389472525
aF0.01734026321940394
aF0.005797752062888752
aF0.007313908787334666
aF0.004179291347114419
aF0.01617645293732563
aF0.04650837989206517
aF0.09193328611124744
aF0.15769641174462454
aF0.24185743587652211
aF0.33613476405041437
aF0.43827983472087423
aF0.06504292819125518
aF0.32727526780145866
aF1.631432937933168e-05
ag194
ag194
aF-0.002401055142833697
aF0.003480675472087825
aF0.0741579793208846
aF1.2763969915887328
aF0.0053101492917787445
aF0.0017807005546779315
aF0.002253959522119468
aF0.0012788144346169558
aF0.00495263610816169
aF0.014300296100899196
aF0.028081169894212058
aF0.048108729463135574
aF0.07378018421644608
aF0.10300300020918127
aF0.1331720724978214
aF0.02001195861456642
aF0.1002004714167329
aF5.447716353463976e-06
aF-0.004467850393347102
aF0.049382948921530216
aF0.055254885438210354
aF2.587137372518395
aF0.01194076397851992
aF0.003987352917082256
aF0.005031512718174236
aF0.0028821183274026605
aF0.011119925655254497
aF0.03199709530575069
aF0.06325177241260138
aF0.108470327614863
aF0.16686515245001582
aF0.2309404547892597
aF0.3012594155865873
aF0.04498257972328344
aF0.22549624462998316
aF1.0932898395425554e-05
aF0.0015571711906917265
aF0.031040937005860633
aF0.15236113026923864
aF3.933725026081052
aF0.017339646523609673
aF0.005796664588832773
aF0.007313537915405067
aF0.004173826674834741
aF0.01616805406381431
aF0.04648049199153495
aF0.09187598790908945
aF0.15771543964907153
aF0.24181924211082556
aF0.33623128793322227
aF0.4380429571339732
aF0.06502290681109868
aF0.32712383754480806
aF1.6305006477114916e-05
ag194
ag194
aF-0.0024689018088272638
aF0.0033520445590988464
aF0.07291207013297181
aF1.2792125184206946
aF0.005237248754608502
aF0.0017627083693235067
aF0.0022274996960753384
aF0.0012691841539996045
aF0.0048980144264625415
aF0.014087649222961887
aF0.02769101226845361
aF0.047407487549203764
aF0.07281191927607197
aF0.10164391892431061
aF0.13121053518562867
aF0.019830218113127875
aF0.09932129707387603
aF5.470643409999625e-06
aF-0.004194470140214704
aF0.049082335997579205
aF0.051630538311524934
aF2.5685141106546507
aF0.011993452130911441
aF0.003998070333477427
aF0.005046838624871608
aF0.002892829445020521
aF0.01117548178773399
aF0.03220120753742393
aF0.06364173811770164
aF0.10908342636331468
aF0.16802569706363124
aF0.23260242335477155
aF0.30316050544130924
aF0.045094163319190375
aF0.22632737282439944
aF1.0964545198750328e-05
aF0.0015547933215739988
aF0.030774704354711403
aF0.15064906048589682
aF3.9069376372832396
aF0.017420077044829348
aF0.005815181401242097
aF0.0073384262463280754
aF0.00419133232645121
aF0.016251551955325627
aF0.04677522484768468
aF0.09238920139822619
aF0.15853895600405415
aF0.24339936570712886
aF0.33847001246647446
aF0.44058468984514343
aF0.06521583329065493
aF0.3284337995731755
aF1.636252428855962e-05
ag194
ag194
aF-0.0024646911964038296
aF0.0035617539969070187
aF0.07192470127423922
aF1.2768661474919787
aF0.005292990871535549
aF0.0017903450751402396
aF0.0022605991954432344
aF0.0012868736299860373
aF0.004941650685047232
aF0.014200781014956768
aF0.027982627344548275
aF0.047798669762964846
aF0.07323623486544481
aF0.10220491229004057
aF0.13235669928806296
aF0.020133167020331483
aF0.10078314477532588
aF5.415264976906321e-06
aF-0.004314401312787247
aF0.049225706034836884
aF0.05357522475805607
aF2.59700131040337
aF0.01189649570429163
aF0.0039820887849403176
aF0.00502187378202619
aF0.002877207111391115
aF0.01108129091954802
aF0.03185052270841959
aF0.06304246246758713
aF0.10801761828846405
aF0.1659573056635424
aF0.2295479505206788
aF0.29998988049161807
aF0.044928305958433126
aF0.22502958495425393
aF1.0902021901582905e-05
aF0.0015478342407996212
aF0.03109460298185699
aF0.15378768212386984
aF3.944598721674943
aF0.017258921820250166
aF0.0057791380587065445
aF0.007288661052331893
aF0.004161743703618545
aF0.01609189497937944
aF0.04621144245194097
aF0.09142275142864839
aF0.15684573710601657
aF0.24026474161021275
aF0.33389494586795676
aF0.43569993452826433
aF0.06484141851219409
aF0.3259557230904734
aF1.6255834804477237e-05
ag194
ag194
aF-0.002466920709682037
aF0.0035168219139553574
aF0.07194049910861774
aF1.2732956758928413
aF0.005255758282018415
aF0.0017739385031494642
aF0.002240939907636403
aF0.0012770939655333317
aF0.004906634659445887
aF0.01412719259037831
aF0.027813301024208346
aF0.04751777710565322
aF0.07289749905912411
aF0.10174735158632131
aF0.13153396233566192
aF0.019927377227023285
aF0.09994382924317666
aF5.4316365581313855e-06
aF-0.004287601555190094
aF0.04912121983433727
aF0.05174292330768976
aF2.578354150849297
aF0.011950758486729543
aF0.003989416101264531
aF0.005033961796817056
aF0.002886849783973097
aF0.011126936847658406
aF0.03206037154428601
aF0.06342272547408509
aF0.10862964700828728
aF0.16720277823322308
aF0.23126699521041222
aF0.3017801883903537
aF0.04497149803867695
aF0.2257260581425618
aF1.0925488326567059e-05
aF0.0015522508878001956
aF0.031089327511432164
aF0.15151534065945277
aF3.9199517476288377
aF0.017330996351816837
aF0.005791574787109542
aF0.007306844754411212
aF0.0041750662965820045
aF0.016156392150521073
aF0.04649509794612287
aF0.0919122505006293
aF0.15763105007963327
aF0.2418812098990709
aF0.3361260142432407
aF0.43801891686020855
aF0.06491661205462221
aF0.3269840987803722
aF1.6295030092743942e-05
ag194
ag194
aF-0.0024666545348110813
aF0.0033987126006317157
aF0.07292775984444899
aF1.2829083403391346
aF0.005275239377009241
aF0.001779175212299136
aF0.0022473894411237675
aF0.0012791391057474736
aF0.00493375194978415
aF0.014163092926767611
aF0.02786178076728926
aF0.04770320663621421
aF0.07316650427261563
aF0.10210741556484441
aF0.13205147518686086
aF0.020041893274390602
aF0.10016625245797012
aF5.454113777367995e-06
aF-0.004217651862552513
aF0.04919001912561119
aF0.05341195808481772
aF2.5873766544834127
aF0.01194104222220976
aF0.003991123644689475
aF0.005035198322749944
aF0.0028837005390872773
aF0.011131468288412962
aF0.03199460543518336
aF0.06326535180683646
aF0.10849621187423246
aF0.16679682028120063
aF0.23089026512910046
aF0.30139638699629356
aF0.045060655134619994
aF0.22565874089432256
aF1.0941720152039499e-05
aF0.0015507594457342714
aF0.03076822325047766
aF0.15289870306673795
aF3.9316847570593736
aF0.017349158679673043
aF0.005803184882647952
aF0.007320740783294448
aF0.00417837755004611
aF0.01618856610451274
aF0.046494487407590136
aF0.09189937129520181
aF0.15777157639268613
aF0.24179105163275733
aF0.33623716922074903
aF0.4382876763446778
aF0.06514964191603415
aF0.3274337700050576
aF1.632463266757716e-05
ag194
ag194
aF-0.0024390263511186684
aF0.0032046267121002177
aF0.07425353259098903
aF1.2665401066045248
aF0.0052245372629064766
aF0.0017557592186906877
aF0.002222867245177289
aF0.0012678755555483746
aF0.004895715112734867
aF0.014045338396210942
aF0.027384214887112852
aF0.04733308005280059
aF0.07215326568123624
aF0.10138829124820137
aF0.13143674202801273
aF0.01983648650148321
aF0.09876301866229546
aF5.451943482944421e-06
aF-0.004382459840224259
aF0.04722183250038729
aF0.05452357716498124
aF2.534561210784626
aF0.01196067055620346
aF0.0039820539696198785
aF0.005022720779291741
aF0.0028878187084943946
aF0.011150918818141823
aF0.032038579624296064
aF0.06313804266653934
aF0.10917214072339251
aF0.16688043228868393
aF0.2319849464641247
aF0.3025110814083717
aF0.045017583260454075
aF0.22512075768727874
aF1.0936426372832873e-05
aF0.001670846310279862
aF0.030147196572940443
aF0.1451458192797193
aF3.858878835984714
aF0.017374533574846064
aF0.005791223245125975
aF0.007303581167174308
aF0.0041836950305919945
aF0.01622027493060628
aF0.046548055737412164
aF0.09166538062436361
aF0.15875622447402324
aF0.24187025699960418
aF0.3377280626353021
aF0.4398052389986098
aF0.06505839486668612
aF0.32661350595612143
aF1.6324086187639374e-05
ag194
ag194
aF-0.002482999667973361
aF0.003479823547206843
aF0.07268257316491354
aF1.2934929166894724
aF0.005322468871428802
aF0.0018024670091675431
aF0.0022736007509541545
aF0.001287522929562446
aF0.0049530582757527294
aF0.01426245664933714
aF0.028353015156114547
aF0.04787247891149994
aF0.07407032996594475
aF0.1023967007242084
aF0.13227967723201361
aF0.02016790551421068
aF0.10160868409977147
aF5.4354408333375e-06
aF-0.004017232153502274
aF0.051948889124650066
aF0.04699898062151188
aF2.6683403944911332
aF0.011923328794131985
aF0.004007551401300793
aF0.005057176935618928
aF0.002878993494818391
aF0.011079223271317983
aF0.032006593115042184
aF0.06375769866255437
aF0.10727137654440362
aF0.1672464695560815
aF0.22937023765918774
aF0.2997741697904429
aF0.04503683015195542
aF0.226805008832797
aF1.0929443645968925e-05
aF0.0016601898797269895
aF0.03294845262364076
aF0.18098645354580398
aF4.060588788710782
aF0.017284591923821615
aF0.0058227565312086406
aF0.007329871927042417
aF0.0041608918628073
aF0.01606489418621717
aF0.04641276388977878
aF0.09251208075918889
aF0.15525830592915676
aF0.2418558686751941
aF0.3334356476064056
aF0.4349004282838102
aF0.06512685313298652
aF0.3291784709673407
aF1.6270999031852116e-05
ag194
ag194
aF-0.0024293444070618213
aF0.003045324575389453
aF0.07298160047170087
aF1.2660684823813546
aF0.005222098214097825
aF0.001755982867246526
aF0.0022223738664899546
aF0.00126860000374035
aF0.004892529776256063
aF0.014036781125987424
aF0.0274342199505911
aF0.04734556623883073
aF0.07225538311474304
aF0.1013625830185771
aF0.13132069809364788
aF0.019831228138085338
aF0.09879496463737468
aF5.447618626298021e-06
aF-0.004362733407897034
aF0.04767685096438394
aF0.05523457579705028
aF2.5439224614554106
aF0.011950193706334605
aF0.003981126801148392
aF0.005023671898740403
aF0.002887045317828833
aF0.011145838075103068
aF0.032028059325940106
aF0.06316339816718475
aF0.1090402320946587
aF0.16688326604450548
aF0.23176716247425685
aF0.30235012905079217
aF0.04500098942547489
aF0.22504789538780604
aF1.0932549198376568e-05
aF0.0016434934018624968
aF0.03024477116150831
aF0.1500465987771562
aF3.869860480435767
aF0.017355735413153713
aF0.005786715356596489
aF0.0073021268872304305
aF0.0041817426676787565
aF0.016207782550451303
aF0.04651150537095217
aF0.09168568020158155
aF0.15851732843116997
aF0.24183773287060528
aF0.3373536677616148
aF0.4392974733583907
aF0.06501720101474177
aF0.32638836672085364
aF1.6315563999215714e-05
ag194
ag194
aF-0.0024998128495669625
aF0.0036496633807640367
aF0.07333023212528288
aF1.2938177583320716
aF0.005321991913118433
aF0.0018004352452719666
aF0.002271295248081176
aF0.0012873139301273976
aF0.004953087942074465
aF0.014272904084553966
aF0.02827508730064673
aF0.047856659177306894
aF0.07390566198452717
aF0.10244762360375162
aF0.13239697427250305
aF0.020163933035180787
aF0.10150489050694561
aF5.439649477776729e-06
aF-0.0040934884817463504
aF0.05103698429581986
aF0.048119240043995495
aF2.638338388912025
aF0.01194371984372647
aF0.00400419672663232
aF0.0050510092657557225
aF0.002882052387536832
aF0.011100673985083206
aF0.03202846223245828
aF0.0636081601135667
aF0.1077955380064189
aF0.16716654025030578
aF0.2300546281765686
aF0.3004059125616874
aF0.04505034834266694
aF0.2266779539714819
aF1.0935766075556723e-05
aF0.0015795465591171064
aF0.032268867773157205
aF0.16029821101090164
aF4.011799130392049
aF0.017324549779444094
aF0.005818049572756328
aF0.0073303256815143315
aF0.004168603212515447
aF0.016114835132137722
aF0.046485050075307836
aF0.09225204746033894
aF0.156303182252812
aF0.24183319622838872
aF0.3344952741969776
aF0.4363767964194364
aF0.06513564216602115
aF0.32883937706137756
aF1.6297500118375495e-05
ag194
ag194
atp415
ba(lp416
g15
(g16
(dp417
g18
g19
(g20
(I0
tp418
g22
tp419
Rp420
(I1
(I56
tp421
g29
I00
(lp422
g33
ag34
ag35
ag36
ag37
ag38
ag39
ag40
ag41
ag42
ag43
ag44
ag45
ag46
ag47
ag48
ag49
ag50
ag51
ag52
ag53
ag54
ag55
ag56
ag57
ag58
ag59
ag60
ag61
ag62
ag63
ag64
ag65
ag66
ag67
ag68
ag69
ag70
ag71
ag72
ag73
ag74
ag75
ag76
ag77
ag78
ag79
ag80
ag81
ag82
ag83
ag84
ag85
ag86
ag87
ag88
atp423
bsg90
Nstp424
Rp425
a(dp426
S'0.14.1'
p427
(dp428
S'axes'
p429
g14
sS'blocks'
p430
(lp431
(dp432
S'mgr_locs'
p433
c__builtin__
slice
p434
(I0
I56
I1
tp435
Rp436
sS'values'
p437
g111
sasstp438
bsb.